
Ultrasonic_STM32.elf:     file format elf32-littlearm

Sections:
Idx Name          Size      VMA       LMA       File off  Algn
  0 .isr_vector   0000018c  08000000  08000000  00001000  2**0
                  CONTENTS, ALLOC, LOAD, READONLY, DATA
  1 .text         00004460  08000190  08000190  00001190  2**4
                  CONTENTS, ALLOC, LOAD, READONLY, CODE
  2 .rodata       00000374  080045f0  080045f0  000055f0  2**3
                  CONTENTS, ALLOC, LOAD, READONLY, DATA
  3 .ARM.extab    00000000  08004964  08004964  000061c8  2**0
                  CONTENTS, READONLY
  4 .ARM          00000008  08004964  08004964  00005964  2**2
                  CONTENTS, ALLOC, LOAD, READONLY, DATA
  5 .preinit_array 00000000  0800496c  0800496c  000061c8  2**0
                  CONTENTS, ALLOC, LOAD, DATA
  6 .init_array   00000004  0800496c  0800496c  0000596c  2**2
                  CONTENTS, ALLOC, LOAD, READONLY, DATA
  7 .fini_array   00000004  08004970  08004970  00005970  2**2
                  CONTENTS, ALLOC, LOAD, READONLY, DATA
  8 .data         000001c8  20000000  08004974  00006000  2**2
                  CONTENTS, ALLOC, LOAD, DATA
  9 .sram2        00000000  10000000  10000000  000061c8  2**0
                  CONTENTS
 10 .bss          00000190  200001c8  200001c8  000061c8  2**2
                  ALLOC
 11 ._user_heap_stack 00000600  20000358  20000358  000061c8  2**0
                  ALLOC
 12 .ARM.attributes 00000030  00000000  00000000  000061c8  2**0
                  CONTENTS, READONLY
 13 .debug_info   000020a8  00000000  00000000  000061f8  2**0
                  CONTENTS, READONLY, DEBUGGING, OCTETS
 14 .debug_abbrev 0000095e  00000000  00000000  000082a0  2**0
                  CONTENTS, READONLY, DEBUGGING, OCTETS
 15 .debug_aranges 00000280  00000000  00000000  00008c00  2**3
                  CONTENTS, READONLY, DEBUGGING, OCTETS
 16 .debug_rnglists 000001c9  00000000  00000000  00008e80  2**0
                  CONTENTS, READONLY, DEBUGGING, OCTETS
 17 .debug_macro  0000331d  00000000  00000000  00009049  2**0
                  CONTENTS, READONLY, DEBUGGING, OCTETS
 18 .debug_line   00002d2d  00000000  00000000  0000c366  2**0
                  CONTENTS, READONLY, DEBUGGING, OCTETS
 19 .debug_str    0000b607  00000000  00000000  0000f093  2**0
                  CONTENTS, READONLY, DEBUGGING, OCTETS
 20 .comment      00000043  00000000  00000000  0001a69a  2**0
                  CONTENTS, READONLY
 21 .debug_frame  000018ec  00000000  00000000  0001a6e0  2**2
                  CONTENTS, READONLY, DEBUGGING, OCTETS
 22 .debug_line_str 00000041  00000000  00000000  0001bfcc  2**0
                  CONTENTS, READONLY, DEBUGGING, OCTETS

Disassembly of section .text:

08000190 <__do_global_dtors_aux>:
 8000190:	b510      	push	{r4, lr}
 8000192:	4c05      	ldr	r4, [pc, #20]	@ (80001a8 <__do_global_dtors_aux+0x18>)
 8000194:	7823      	ldrb	r3, [r4, #0]
 8000196:	b933      	cbnz	r3, 80001a6 <__do_global_dtors_aux+0x16>
 8000198:	4b04      	ldr	r3, [pc, #16]	@ (80001ac <__do_global_dtors_aux+0x1c>)
 800019a:	b113      	cbz	r3, 80001a2 <__do_global_dtors_aux+0x12>
 800019c:	4804      	ldr	r0, [pc, #16]	@ (80001b0 <__do_global_dtors_aux+0x20>)
 800019e:	f3af 8000 	nop.w
 80001a2:	2301      	movs	r3, #1
 80001a4:	7023      	strb	r3, [r4, #0]
 80001a6:	bd10      	pop	{r4, pc}
 80001a8:	200001c8 	.word	0x200001c8
 80001ac:	00000000 	.word	0x00000000
 80001b0:	080045d8 	.word	0x080045d8

080001b4 <frame_dummy>:
 80001b4:	b508      	push	{r3, lr}
 80001b6:	4b03      	ldr	r3, [pc, #12]	@ (80001c4 <frame_dummy+0x10>)
 80001b8:	b11b      	cbz	r3, 80001c2 <frame_dummy+0xe>
 80001ba:	4903      	ldr	r1, [pc, #12]	@ (80001c8 <frame_dummy+0x14>)
 80001bc:	4803      	ldr	r0, [pc, #12]	@ (80001cc <frame_dummy+0x18>)
 80001be:	f3af 8000 	nop.w
 80001c2:	bd08      	pop	{r3, pc}
 80001c4:	00000000 	.word	0x00000000
 80001c8:	200001cc 	.word	0x200001cc
 80001cc:	080045d8 	.word	0x080045d8

080001d0 <memchr>:
 80001d0:	f001 01ff 	and.w	r1, r1, #255	@ 0xff
 80001d4:	2a10      	cmp	r2, #16
 80001d6:	db2b      	blt.n	8000230 <memchr+0x60>
 80001d8:	f010 0f07 	tst.w	r0, #7
 80001dc:	d008      	beq.n	80001f0 <memchr+0x20>
 80001de:	f810 3b01 	ldrb.w	r3, [r0], #1
 80001e2:	3a01      	subs	r2, #1
 80001e4:	428b      	cmp	r3, r1
 80001e6:	d02d      	beq.n	8000244 <memchr+0x74>
 80001e8:	f010 0f07 	tst.w	r0, #7
 80001ec:	b342      	cbz	r2, 8000240 <memchr+0x70>
 80001ee:	d1f6      	bne.n	80001de <memchr+0xe>
 80001f0:	b4f0      	push	{r4, r5, r6, r7}
 80001f2:	ea41 2101 	orr.w	r1, r1, r1, lsl #8
 80001f6:	ea41 4101 	orr.w	r1, r1, r1, lsl #16
 80001fa:	f022 0407 	bic.w	r4, r2, #7
 80001fe:	f07f 0700 	mvns.w	r7, #0
 8000202:	2300      	movs	r3, #0
 8000204:	e8f0 5602 	ldrd	r5, r6, [r0], #8
 8000208:	3c08      	subs	r4, #8
 800020a:	ea85 0501 	eor.w	r5, r5, r1
 800020e:	ea86 0601 	eor.w	r6, r6, r1
 8000212:	fa85 f547 	uadd8	r5, r5, r7
 8000216:	faa3 f587 	sel	r5, r3, r7
 800021a:	fa86 f647 	uadd8	r6, r6, r7
 800021e:	faa5 f687 	sel	r6, r5, r7
 8000222:	b98e      	cbnz	r6, 8000248 <memchr+0x78>
 8000224:	d1ee      	bne.n	8000204 <memchr+0x34>
 8000226:	bcf0      	pop	{r4, r5, r6, r7}
 8000228:	f001 01ff 	and.w	r1, r1, #255	@ 0xff
 800022c:	f002 0207 	and.w	r2, r2, #7
 8000230:	b132      	cbz	r2, 8000240 <memchr+0x70>
 8000232:	f810 3b01 	ldrb.w	r3, [r0], #1
 8000236:	3a01      	subs	r2, #1
 8000238:	ea83 0301 	eor.w	r3, r3, r1
 800023c:	b113      	cbz	r3, 8000244 <memchr+0x74>
 800023e:	d1f8      	bne.n	8000232 <memchr+0x62>
 8000240:	2000      	movs	r0, #0
 8000242:	4770      	bx	lr
 8000244:	3801      	subs	r0, #1
 8000246:	4770      	bx	lr
 8000248:	2d00      	cmp	r5, #0
 800024a:	bf06      	itte	eq
 800024c:	4635      	moveq	r5, r6
 800024e:	3803      	subeq	r0, #3
 8000250:	3807      	subne	r0, #7
 8000252:	f015 0f01 	tst.w	r5, #1
 8000256:	d107      	bne.n	8000268 <memchr+0x98>
 8000258:	3001      	adds	r0, #1
 800025a:	f415 7f80 	tst.w	r5, #256	@ 0x100
 800025e:	bf02      	ittt	eq
 8000260:	3001      	addeq	r0, #1
 8000262:	f415 3fc0 	tsteq.w	r5, #98304	@ 0x18000
 8000266:	3001      	addeq	r0, #1
 8000268:	bcf0      	pop	{r4, r5, r6, r7}
 800026a:	3801      	subs	r0, #1
 800026c:	4770      	bx	lr
 800026e:	bf00      	nop

08000270 <strlen>:
 8000270:	4603      	mov	r3, r0
 8000272:	f813 2b01 	ldrb.w	r2, [r3], #1
 8000276:	2a00      	cmp	r2, #0
 8000278:	d1fb      	bne.n	8000272 <strlen+0x2>
 800027a:	1a18      	subs	r0, r3, r0
 800027c:	3801      	subs	r0, #1
 800027e:	4770      	bx	lr

08000280 <__aeabi_drsub>:
 8000280:	f081 4100 	eor.w	r1, r1, #2147483648	@ 0x80000000
 8000284:	e002      	b.n	800028c <__adddf3>
 8000286:	bf00      	nop

08000288 <__aeabi_dsub>:
 8000288:	f083 4300 	eor.w	r3, r3, #2147483648	@ 0x80000000

0800028c <__adddf3>:
 800028c:	b530      	push	{r4, r5, lr}
 800028e:	ea4f 0441 	mov.w	r4, r1, lsl #1
 8000292:	ea4f 0543 	mov.w	r5, r3, lsl #1
 8000296:	ea94 0f05 	teq	r4, r5
 800029a:	bf08      	it	eq
 800029c:	ea90 0f02 	teqeq	r0, r2
 80002a0:	bf1f      	itttt	ne
 80002a2:	ea54 0c00 	orrsne.w	ip, r4, r0
 80002a6:	ea55 0c02 	orrsne.w	ip, r5, r2
 80002aa:	ea7f 5c64 	mvnsne.w	ip, r4, asr #21
 80002ae:	ea7f 5c65 	mvnsne.w	ip, r5, asr #21
 80002b2:	f000 80e2 	beq.w	800047a <__adddf3+0x1ee>
 80002b6:	ea4f 5454 	mov.w	r4, r4, lsr #21
 80002ba:	ebd4 5555 	rsbs	r5, r4, r5, lsr #21
 80002be:	bfb8      	it	lt
 80002c0:	426d      	neglt	r5, r5
 80002c2:	dd0c      	ble.n	80002de <__adddf3+0x52>
 80002c4:	442c      	add	r4, r5
 80002c6:	ea80 0202 	eor.w	r2, r0, r2
 80002ca:	ea81 0303 	eor.w	r3, r1, r3
 80002ce:	ea82 0000 	eor.w	r0, r2, r0
 80002d2:	ea83 0101 	eor.w	r1, r3, r1
 80002d6:	ea80 0202 	eor.w	r2, r0, r2
 80002da:	ea81 0303 	eor.w	r3, r1, r3
 80002de:	2d36      	cmp	r5, #54	@ 0x36
 80002e0:	bf88      	it	hi
 80002e2:	bd30      	pophi	{r4, r5, pc}
 80002e4:	f011 4f00 	tst.w	r1, #2147483648	@ 0x80000000
 80002e8:	ea4f 3101 	mov.w	r1, r1, lsl #12
 80002ec:	f44f 1c80 	mov.w	ip, #1048576	@ 0x100000
 80002f0:	ea4c 3111 	orr.w	r1, ip, r1, lsr #12
 80002f4:	d002      	beq.n	80002fc <__adddf3+0x70>
 80002f6:	4240      	negs	r0, r0
 80002f8:	eb61 0141 	sbc.w	r1, r1, r1, lsl #1
 80002fc:	f013 4f00 	tst.w	r3, #2147483648	@ 0x80000000
 8000300:	ea4f 3303 	mov.w	r3, r3, lsl #12
 8000304:	ea4c 3313 	orr.w	r3, ip, r3, lsr #12
 8000308:	d002      	beq.n	8000310 <__adddf3+0x84>
 800030a:	4252      	negs	r2, r2
 800030c:	eb63 0343 	sbc.w	r3, r3, r3, lsl #1
 8000310:	ea94 0f05 	teq	r4, r5
 8000314:	f000 80a7 	beq.w	8000466 <__adddf3+0x1da>
 8000318:	f1a4 0401 	sub.w	r4, r4, #1
 800031c:	f1d5 0e20 	rsbs	lr, r5, #32
 8000320:	db0d      	blt.n	800033e <__adddf3+0xb2>
 8000322:	fa02 fc0e 	lsl.w	ip, r2, lr
 8000326:	fa22 f205 	lsr.w	r2, r2, r5
 800032a:	1880      	adds	r0, r0, r2
 800032c:	f141 0100 	adc.w	r1, r1, #0
 8000330:	fa03 f20e 	lsl.w	r2, r3, lr
 8000334:	1880      	adds	r0, r0, r2
 8000336:	fa43 f305 	asr.w	r3, r3, r5
 800033a:	4159      	adcs	r1, r3
 800033c:	e00e      	b.n	800035c <__adddf3+0xd0>
 800033e:	f1a5 0520 	sub.w	r5, r5, #32
 8000342:	f10e 0e20 	add.w	lr, lr, #32
 8000346:	2a01      	cmp	r2, #1
 8000348:	fa03 fc0e 	lsl.w	ip, r3, lr
 800034c:	bf28      	it	cs
 800034e:	f04c 0c02 	orrcs.w	ip, ip, #2
 8000352:	fa43 f305 	asr.w	r3, r3, r5
 8000356:	18c0      	adds	r0, r0, r3
 8000358:	eb51 71e3 	adcs.w	r1, r1, r3, asr #31
 800035c:	f001 4500 	and.w	r5, r1, #2147483648	@ 0x80000000
 8000360:	d507      	bpl.n	8000372 <__adddf3+0xe6>
 8000362:	f04f 0e00 	mov.w	lr, #0
 8000366:	f1dc 0c00 	rsbs	ip, ip, #0
 800036a:	eb7e 0000 	sbcs.w	r0, lr, r0
 800036e:	eb6e 0101 	sbc.w	r1, lr, r1
 8000372:	f5b1 1f80 	cmp.w	r1, #1048576	@ 0x100000
 8000376:	d31b      	bcc.n	80003b0 <__adddf3+0x124>
 8000378:	f5b1 1f00 	cmp.w	r1, #2097152	@ 0x200000
 800037c:	d30c      	bcc.n	8000398 <__adddf3+0x10c>
 800037e:	0849      	lsrs	r1, r1, #1
 8000380:	ea5f 0030 	movs.w	r0, r0, rrx
 8000384:	ea4f 0c3c 	mov.w	ip, ip, rrx
 8000388:	f104 0401 	add.w	r4, r4, #1
 800038c:	ea4f 5244 	mov.w	r2, r4, lsl #21
 8000390:	f512 0f80 	cmn.w	r2, #4194304	@ 0x400000
 8000394:	f080 809a 	bcs.w	80004cc <__adddf3+0x240>
 8000398:	f1bc 4f00 	cmp.w	ip, #2147483648	@ 0x80000000
 800039c:	bf08      	it	eq
 800039e:	ea5f 0c50 	movseq.w	ip, r0, lsr #1
 80003a2:	f150 0000 	adcs.w	r0, r0, #0
 80003a6:	eb41 5104 	adc.w	r1, r1, r4, lsl #20
 80003aa:	ea41 0105 	orr.w	r1, r1, r5
 80003ae:	bd30      	pop	{r4, r5, pc}
 80003b0:	ea5f 0c4c 	movs.w	ip, ip, lsl #1
 80003b4:	4140      	adcs	r0, r0
 80003b6:	eb41 0101 	adc.w	r1, r1, r1
 80003ba:	3c01      	subs	r4, #1
 80003bc:	bf28      	it	cs
 80003be:	f5b1 1f80 	cmpcs.w	r1, #1048576	@ 0x100000
 80003c2:	d2e9      	bcs.n	8000398 <__adddf3+0x10c>
 80003c4:	f091 0f00 	teq	r1, #0
 80003c8:	bf04      	itt	eq
 80003ca:	4601      	moveq	r1, r0
 80003cc:	2000      	moveq	r0, #0
 80003ce:	fab1 f381 	clz	r3, r1
 80003d2:	bf08      	it	eq
 80003d4:	3320      	addeq	r3, #32
 80003d6:	f1a3 030b 	sub.w	r3, r3, #11
 80003da:	f1b3 0220 	subs.w	r2, r3, #32
 80003de:	da0c      	bge.n	80003fa <__adddf3+0x16e>
 80003e0:	320c      	adds	r2, #12
 80003e2:	dd08      	ble.n	80003f6 <__adddf3+0x16a>
 80003e4:	f102 0c14 	add.w	ip, r2, #20
 80003e8:	f1c2 020c 	rsb	r2, r2, #12
 80003ec:	fa01 f00c 	lsl.w	r0, r1, ip
 80003f0:	fa21 f102 	lsr.w	r1, r1, r2
 80003f4:	e00c      	b.n	8000410 <__adddf3+0x184>
 80003f6:	f102 0214 	add.w	r2, r2, #20
 80003fa:	bfd8      	it	le
 80003fc:	f1c2 0c20 	rsble	ip, r2, #32
 8000400:	fa01 f102 	lsl.w	r1, r1, r2
 8000404:	fa20 fc0c 	lsr.w	ip, r0, ip
 8000408:	bfdc      	itt	le
 800040a:	ea41 010c 	orrle.w	r1, r1, ip
 800040e:	4090      	lslle	r0, r2
 8000410:	1ae4      	subs	r4, r4, r3
 8000412:	bfa2      	ittt	ge
 8000414:	eb01 5104 	addge.w	r1, r1, r4, lsl #20
 8000418:	4329      	orrge	r1, r5
 800041a:	bd30      	popge	{r4, r5, pc}
 800041c:	ea6f 0404 	mvn.w	r4, r4
 8000420:	3c1f      	subs	r4, #31
 8000422:	da1c      	bge.n	800045e <__adddf3+0x1d2>
 8000424:	340c      	adds	r4, #12
 8000426:	dc0e      	bgt.n	8000446 <__adddf3+0x1ba>
 8000428:	f104 0414 	add.w	r4, r4, #20
 800042c:	f1c4 0220 	rsb	r2, r4, #32
 8000430:	fa20 f004 	lsr.w	r0, r0, r4
 8000434:	fa01 f302 	lsl.w	r3, r1, r2
 8000438:	ea40 0003 	orr.w	r0, r0, r3
 800043c:	fa21 f304 	lsr.w	r3, r1, r4
 8000440:	ea45 0103 	orr.w	r1, r5, r3
 8000444:	bd30      	pop	{r4, r5, pc}
 8000446:	f1c4 040c 	rsb	r4, r4, #12
 800044a:	f1c4 0220 	rsb	r2, r4, #32
 800044e:	fa20 f002 	lsr.w	r0, r0, r2
 8000452:	fa01 f304 	lsl.w	r3, r1, r4
 8000456:	ea40 0003 	orr.w	r0, r0, r3
 800045a:	4629      	mov	r1, r5
 800045c:	bd30      	pop	{r4, r5, pc}
 800045e:	fa21 f004 	lsr.w	r0, r1, r4
 8000462:	4629      	mov	r1, r5
 8000464:	bd30      	pop	{r4, r5, pc}
 8000466:	f094 0f00 	teq	r4, #0
 800046a:	f483 1380 	eor.w	r3, r3, #1048576	@ 0x100000
 800046e:	bf06      	itte	eq
 8000470:	f481 1180 	eoreq.w	r1, r1, #1048576	@ 0x100000
 8000474:	3401      	addeq	r4, #1
 8000476:	3d01      	subne	r5, #1
 8000478:	e74e      	b.n	8000318 <__adddf3+0x8c>
 800047a:	ea7f 5c64 	mvns.w	ip, r4, asr #21
 800047e:	bf18      	it	ne
 8000480:	ea7f 5c65 	mvnsne.w	ip, r5, asr #21
 8000484:	d029      	beq.n	80004da <__adddf3+0x24e>
 8000486:	ea94 0f05 	teq	r4, r5
 800048a:	bf08      	it	eq
 800048c:	ea90 0f02 	teqeq	r0, r2
 8000490:	d005      	beq.n	800049e <__adddf3+0x212>
 8000492:	ea54 0c00 	orrs.w	ip, r4, r0
 8000496:	bf04      	itt	eq
 8000498:	4619      	moveq	r1, r3
 800049a:	4610      	moveq	r0, r2
 800049c:	bd30      	pop	{r4, r5, pc}
 800049e:	ea91 0f03 	teq	r1, r3
 80004a2:	bf1e      	ittt	ne
 80004a4:	2100      	movne	r1, #0
 80004a6:	2000      	movne	r0, #0
 80004a8:	bd30      	popne	{r4, r5, pc}
 80004aa:	ea5f 5c54 	movs.w	ip, r4, lsr #21
 80004ae:	d105      	bne.n	80004bc <__adddf3+0x230>
 80004b0:	0040      	lsls	r0, r0, #1
 80004b2:	4149      	adcs	r1, r1
 80004b4:	bf28      	it	cs
 80004b6:	f041 4100 	orrcs.w	r1, r1, #2147483648	@ 0x80000000
 80004ba:	bd30      	pop	{r4, r5, pc}
 80004bc:	f514 0480 	adds.w	r4, r4, #4194304	@ 0x400000
 80004c0:	bf3c      	itt	cc
 80004c2:	f501 1180 	addcc.w	r1, r1, #1048576	@ 0x100000
 80004c6:	bd30      	popcc	{r4, r5, pc}
 80004c8:	f001 4500 	and.w	r5, r1, #2147483648	@ 0x80000000
 80004cc:	f045 41fe 	orr.w	r1, r5, #2130706432	@ 0x7f000000
 80004d0:	f441 0170 	orr.w	r1, r1, #15728640	@ 0xf00000
 80004d4:	f04f 0000 	mov.w	r0, #0
 80004d8:	bd30      	pop	{r4, r5, pc}
 80004da:	ea7f 5c64 	mvns.w	ip, r4, asr #21
 80004de:	bf1a      	itte	ne
 80004e0:	4619      	movne	r1, r3
 80004e2:	4610      	movne	r0, r2
 80004e4:	ea7f 5c65 	mvnseq.w	ip, r5, asr #21
 80004e8:	bf1c      	itt	ne
 80004ea:	460b      	movne	r3, r1
 80004ec:	4602      	movne	r2, r0
 80004ee:	ea50 3401 	orrs.w	r4, r0, r1, lsl #12
 80004f2:	bf06      	itte	eq
 80004f4:	ea52 3503 	orrseq.w	r5, r2, r3, lsl #12
 80004f8:	ea91 0f03 	teqeq	r1, r3
 80004fc:	f441 2100 	orrne.w	r1, r1, #524288	@ 0x80000
 8000500:	bd30      	pop	{r4, r5, pc}
 8000502:	bf00      	nop

08000504 <__aeabi_ui2d>:
 8000504:	f090 0f00 	teq	r0, #0
 8000508:	bf04      	itt	eq
 800050a:	2100      	moveq	r1, #0
 800050c:	4770      	bxeq	lr
 800050e:	b530      	push	{r4, r5, lr}
 8000510:	f44f 6480 	mov.w	r4, #1024	@ 0x400
 8000514:	f104 0432 	add.w	r4, r4, #50	@ 0x32
 8000518:	f04f 0500 	mov.w	r5, #0
 800051c:	f04f 0100 	mov.w	r1, #0
 8000520:	e750      	b.n	80003c4 <__adddf3+0x138>
 8000522:	bf00      	nop

08000524 <__aeabi_i2d>:
 8000524:	f090 0f00 	teq	r0, #0
 8000528:	bf04      	itt	eq
 800052a:	2100      	moveq	r1, #0
 800052c:	4770      	bxeq	lr
 800052e:	b530      	push	{r4, r5, lr}
 8000530:	f44f 6480 	mov.w	r4, #1024	@ 0x400
 8000534:	f104 0432 	add.w	r4, r4, #50	@ 0x32
 8000538:	f010 4500 	ands.w	r5, r0, #2147483648	@ 0x80000000
 800053c:	bf48      	it	mi
 800053e:	4240      	negmi	r0, r0
 8000540:	f04f 0100 	mov.w	r1, #0
 8000544:	e73e      	b.n	80003c4 <__adddf3+0x138>
 8000546:	bf00      	nop

08000548 <__aeabi_f2d>:
 8000548:	0042      	lsls	r2, r0, #1
 800054a:	ea4f 01e2 	mov.w	r1, r2, asr #3
 800054e:	ea4f 0131 	mov.w	r1, r1, rrx
 8000552:	ea4f 7002 	mov.w	r0, r2, lsl #28
 8000556:	bf1f      	itttt	ne
 8000558:	f012 437f 	andsne.w	r3, r2, #4278190080	@ 0xff000000
 800055c:	f093 4f7f 	teqne	r3, #4278190080	@ 0xff000000
 8000560:	f081 5160 	eorne.w	r1, r1, #939524096	@ 0x38000000
 8000564:	4770      	bxne	lr
 8000566:	f032 427f 	bics.w	r2, r2, #4278190080	@ 0xff000000
 800056a:	bf08      	it	eq
 800056c:	4770      	bxeq	lr
 800056e:	f093 4f7f 	teq	r3, #4278190080	@ 0xff000000
 8000572:	bf04      	itt	eq
 8000574:	f441 2100 	orreq.w	r1, r1, #524288	@ 0x80000
 8000578:	4770      	bxeq	lr
 800057a:	b530      	push	{r4, r5, lr}
 800057c:	f44f 7460 	mov.w	r4, #896	@ 0x380
 8000580:	f001 4500 	and.w	r5, r1, #2147483648	@ 0x80000000
 8000584:	f021 4100 	bic.w	r1, r1, #2147483648	@ 0x80000000
 8000588:	e71c      	b.n	80003c4 <__adddf3+0x138>
 800058a:	bf00      	nop

0800058c <__aeabi_ul2d>:
 800058c:	ea50 0201 	orrs.w	r2, r0, r1
 8000590:	bf08      	it	eq
 8000592:	4770      	bxeq	lr
 8000594:	b530      	push	{r4, r5, lr}
 8000596:	f04f 0500 	mov.w	r5, #0
 800059a:	e00a      	b.n	80005b2 <__aeabi_l2d+0x16>

0800059c <__aeabi_l2d>:
 800059c:	ea50 0201 	orrs.w	r2, r0, r1
 80005a0:	bf08      	it	eq
 80005a2:	4770      	bxeq	lr
 80005a4:	b530      	push	{r4, r5, lr}
 80005a6:	f011 4500 	ands.w	r5, r1, #2147483648	@ 0x80000000
 80005aa:	d502      	bpl.n	80005b2 <__aeabi_l2d+0x16>
 80005ac:	4240      	negs	r0, r0
 80005ae:	eb61 0141 	sbc.w	r1, r1, r1, lsl #1
 80005b2:	f44f 6480 	mov.w	r4, #1024	@ 0x400
 80005b6:	f104 0432 	add.w	r4, r4, #50	@ 0x32
 80005ba:	ea5f 5c91 	movs.w	ip, r1, lsr #22
 80005be:	f43f aed8 	beq.w	8000372 <__adddf3+0xe6>
 80005c2:	f04f 0203 	mov.w	r2, #3
 80005c6:	ea5f 0cdc 	movs.w	ip, ip, lsr #3
 80005ca:	bf18      	it	ne
 80005cc:	3203      	addne	r2, #3
 80005ce:	ea5f 0cdc 	movs.w	ip, ip, lsr #3
 80005d2:	bf18      	it	ne
 80005d4:	3203      	addne	r2, #3
 80005d6:	eb02 02dc 	add.w	r2, r2, ip, lsr #3
 80005da:	f1c2 0320 	rsb	r3, r2, #32
 80005de:	fa00 fc03 	lsl.w	ip, r0, r3
 80005e2:	fa20 f002 	lsr.w	r0, r0, r2
 80005e6:	fa01 fe03 	lsl.w	lr, r1, r3
 80005ea:	ea40 000e 	orr.w	r0, r0, lr
 80005ee:	fa21 f102 	lsr.w	r1, r1, r2
 80005f2:	4414      	add	r4, r2
 80005f4:	e6bd      	b.n	8000372 <__adddf3+0xe6>
 80005f6:	bf00      	nop

080005f8 <__aeabi_dmul>:
 80005f8:	b570      	push	{r4, r5, r6, lr}
 80005fa:	f04f 0cff 	mov.w	ip, #255	@ 0xff
 80005fe:	f44c 6ce0 	orr.w	ip, ip, #1792	@ 0x700
 8000602:	ea1c 5411 	ands.w	r4, ip, r1, lsr #20
 8000606:	bf1d      	ittte	ne
 8000608:	ea1c 5513 	andsne.w	r5, ip, r3, lsr #20
 800060c:	ea94 0f0c 	teqne	r4, ip
 8000610:	ea95 0f0c 	teqne	r5, ip
 8000614:	f000 f8de 	bleq	80007d4 <__aeabi_dmul+0x1dc>
 8000618:	442c      	add	r4, r5
 800061a:	ea81 0603 	eor.w	r6, r1, r3
 800061e:	ea21 514c 	bic.w	r1, r1, ip, lsl #21
 8000622:	ea23 534c 	bic.w	r3, r3, ip, lsl #21
 8000626:	ea50 3501 	orrs.w	r5, r0, r1, lsl #12
 800062a:	bf18      	it	ne
 800062c:	ea52 3503 	orrsne.w	r5, r2, r3, lsl #12
 8000630:	f441 1180 	orr.w	r1, r1, #1048576	@ 0x100000
 8000634:	f443 1380 	orr.w	r3, r3, #1048576	@ 0x100000
 8000638:	d038      	beq.n	80006ac <__aeabi_dmul+0xb4>
 800063a:	fba0 ce02 	umull	ip, lr, r0, r2
 800063e:	f04f 0500 	mov.w	r5, #0
 8000642:	fbe1 e502 	umlal	lr, r5, r1, r2
 8000646:	f006 4200 	and.w	r2, r6, #2147483648	@ 0x80000000
 800064a:	fbe0 e503 	umlal	lr, r5, r0, r3
 800064e:	f04f 0600 	mov.w	r6, #0
 8000652:	fbe1 5603 	umlal	r5, r6, r1, r3
 8000656:	f09c 0f00 	teq	ip, #0
 800065a:	bf18      	it	ne
 800065c:	f04e 0e01 	orrne.w	lr, lr, #1
 8000660:	f1a4 04ff 	sub.w	r4, r4, #255	@ 0xff
 8000664:	f5b6 7f00 	cmp.w	r6, #512	@ 0x200
 8000668:	f564 7440 	sbc.w	r4, r4, #768	@ 0x300
 800066c:	d204      	bcs.n	8000678 <__aeabi_dmul+0x80>
 800066e:	ea5f 0e4e 	movs.w	lr, lr, lsl #1
 8000672:	416d      	adcs	r5, r5
 8000674:	eb46 0606 	adc.w	r6, r6, r6
 8000678:	ea42 21c6 	orr.w	r1, r2, r6, lsl #11
 800067c:	ea41 5155 	orr.w	r1, r1, r5, lsr #21
 8000680:	ea4f 20c5 	mov.w	r0, r5, lsl #11
 8000684:	ea40 505e 	orr.w	r0, r0, lr, lsr #21
 8000688:	ea4f 2ece 	mov.w	lr, lr, lsl #11
 800068c:	f1b4 0cfd 	subs.w	ip, r4, #253	@ 0xfd
 8000690:	bf88      	it	hi
 8000692:	f5bc 6fe0 	cmphi.w	ip, #1792	@ 0x700
 8000696:	d81e      	bhi.n	80006d6 <__aeabi_dmul+0xde>
 8000698:	f1be 4f00 	cmp.w	lr, #2147483648	@ 0x80000000
 800069c:	bf08      	it	eq
 800069e:	ea5f 0e50 	movseq.w	lr, r0, lsr #1
 80006a2:	f150 0000 	adcs.w	r0, r0, #0
 80006a6:	eb41 5104 	adc.w	r1, r1, r4, lsl #20
 80006aa:	bd70      	pop	{r4, r5, r6, pc}
 80006ac:	f006 4600 	and.w	r6, r6, #2147483648	@ 0x80000000
 80006b0:	ea46 0101 	orr.w	r1, r6, r1
 80006b4:	ea40 0002 	orr.w	r0, r0, r2
 80006b8:	ea81 0103 	eor.w	r1, r1, r3
 80006bc:	ebb4 045c 	subs.w	r4, r4, ip, lsr #1
 80006c0:	bfc2      	ittt	gt
 80006c2:	ebd4 050c 	rsbsgt	r5, r4, ip
 80006c6:	ea41 5104 	orrgt.w	r1, r1, r4, lsl #20
 80006ca:	bd70      	popgt	{r4, r5, r6, pc}
 80006cc:	f441 1180 	orr.w	r1, r1, #1048576	@ 0x100000
 80006d0:	f04f 0e00 	mov.w	lr, #0
 80006d4:	3c01      	subs	r4, #1
 80006d6:	f300 80ab 	bgt.w	8000830 <__aeabi_dmul+0x238>
 80006da:	f114 0f36 	cmn.w	r4, #54	@ 0x36
 80006de:	bfde      	ittt	le
 80006e0:	2000      	movle	r0, #0
 80006e2:	f001 4100 	andle.w	r1, r1, #2147483648	@ 0x80000000
 80006e6:	bd70      	pople	{r4, r5, r6, pc}
 80006e8:	f1c4 0400 	rsb	r4, r4, #0
 80006ec:	3c20      	subs	r4, #32
 80006ee:	da35      	bge.n	800075c <__aeabi_dmul+0x164>
 80006f0:	340c      	adds	r4, #12
 80006f2:	dc1b      	bgt.n	800072c <__aeabi_dmul+0x134>
 80006f4:	f104 0414 	add.w	r4, r4, #20
 80006f8:	f1c4 0520 	rsb	r5, r4, #32
 80006fc:	fa00 f305 	lsl.w	r3, r0, r5
 8000700:	fa20 f004 	lsr.w	r0, r0, r4
 8000704:	fa01 f205 	lsl.w	r2, r1, r5
 8000708:	ea40 0002 	orr.w	r0, r0, r2
 800070c:	f001 4200 	and.w	r2, r1, #2147483648	@ 0x80000000
 8000710:	f021 4100 	bic.w	r1, r1, #2147483648	@ 0x80000000
 8000714:	eb10 70d3 	adds.w	r0, r0, r3, lsr #31
 8000718:	fa21 f604 	lsr.w	r6, r1, r4
 800071c:	eb42 0106 	adc.w	r1, r2, r6
 8000720:	ea5e 0e43 	orrs.w	lr, lr, r3, lsl #1
 8000724:	bf08      	it	eq
 8000726:	ea20 70d3 	biceq.w	r0, r0, r3, lsr #31
 800072a:	bd70      	pop	{r4, r5, r6, pc}
 800072c:	f1c4 040c 	rsb	r4, r4, #12
 8000730:	f1c4 0520 	rsb	r5, r4, #32
 8000734:	fa00 f304 	lsl.w	r3, r0, r4
 8000738:	fa20 f005 	lsr.w	r0, r0, r5
 800073c:	fa01 f204 	lsl.w	r2, r1, r4
 8000740:	ea40 0002 	orr.w	r0, r0, r2
 8000744:	f001 4100 	and.w	r1, r1, #2147483648	@ 0x80000000
 8000748:	eb10 70d3 	adds.w	r0, r0, r3, lsr #31
 800074c:	f141 0100 	adc.w	r1, r1, #0
 8000750:	ea5e 0e43 	orrs.w	lr, lr, r3, lsl #1
 8000754:	bf08      	it	eq
 8000756:	ea20 70d3 	biceq.w	r0, r0, r3, lsr #31
 800075a:	bd70      	pop	{r4, r5, r6, pc}
 800075c:	f1c4 0520 	rsb	r5, r4, #32
 8000760:	fa00 f205 	lsl.w	r2, r0, r5
 8000764:	ea4e 0e02 	orr.w	lr, lr, r2
 8000768:	fa20 f304 	lsr.w	r3, r0, r4
 800076c:	fa01 f205 	lsl.w	r2, r1, r5
 8000770:	ea43 0302 	orr.w	r3, r3, r2
 8000774:	fa21 f004 	lsr.w	r0, r1, r4
 8000778:	f001 4100 	and.w	r1, r1, #2147483648	@ 0x80000000
 800077c:	fa21 f204 	lsr.w	r2, r1, r4
 8000780:	ea20 0002 	bic.w	r0, r0, r2
 8000784:	eb00 70d3 	add.w	r0, r0, r3, lsr #31
 8000788:	ea5e 0e43 	orrs.w	lr, lr, r3, lsl #1
 800078c:	bf08      	it	eq
 800078e:	ea20 70d3 	biceq.w	r0, r0, r3, lsr #31
 8000792:	bd70      	pop	{r4, r5, r6, pc}
 8000794:	f094 0f00 	teq	r4, #0
 8000798:	d10f      	bne.n	80007ba <__aeabi_dmul+0x1c2>
 800079a:	f001 4600 	and.w	r6, r1, #2147483648	@ 0x80000000
 800079e:	0040      	lsls	r0, r0, #1
 80007a0:	eb41 0101 	adc.w	r1, r1, r1
 80007a4:	f411 1f80 	tst.w	r1, #1048576	@ 0x100000
 80007a8:	bf08      	it	eq
 80007aa:	3c01      	subeq	r4, #1
 80007ac:	d0f7      	beq.n	800079e <__aeabi_dmul+0x1a6>
 80007ae:	ea41 0106 	orr.w	r1, r1, r6
 80007b2:	f095 0f00 	teq	r5, #0
 80007b6:	bf18      	it	ne
 80007b8:	4770      	bxne	lr
 80007ba:	f003 4600 	and.w	r6, r3, #2147483648	@ 0x80000000
 80007be:	0052      	lsls	r2, r2, #1
 80007c0:	eb43 0303 	adc.w	r3, r3, r3
 80007c4:	f413 1f80 	tst.w	r3, #1048576	@ 0x100000
 80007c8:	bf08      	it	eq
 80007ca:	3d01      	subeq	r5, #1
 80007cc:	d0f7      	beq.n	80007be <__aeabi_dmul+0x1c6>
 80007ce:	ea43 0306 	orr.w	r3, r3, r6
 80007d2:	4770      	bx	lr
 80007d4:	ea94 0f0c 	teq	r4, ip
 80007d8:	ea0c 5513 	and.w	r5, ip, r3, lsr #20
 80007dc:	bf18      	it	ne
 80007de:	ea95 0f0c 	teqne	r5, ip
 80007e2:	d00c      	beq.n	80007fe <__aeabi_dmul+0x206>
 80007e4:	ea50 0641 	orrs.w	r6, r0, r1, lsl #1
 80007e8:	bf18      	it	ne
 80007ea:	ea52 0643 	orrsne.w	r6, r2, r3, lsl #1
 80007ee:	d1d1      	bne.n	8000794 <__aeabi_dmul+0x19c>
 80007f0:	ea81 0103 	eor.w	r1, r1, r3
 80007f4:	f001 4100 	and.w	r1, r1, #2147483648	@ 0x80000000
 80007f8:	f04f 0000 	mov.w	r0, #0
 80007fc:	bd70      	pop	{r4, r5, r6, pc}
 80007fe:	ea50 0641 	orrs.w	r6, r0, r1, lsl #1
 8000802:	bf06      	itte	eq
 8000804:	4610      	moveq	r0, r2
 8000806:	4619      	moveq	r1, r3
 8000808:	ea52 0643 	orrsne.w	r6, r2, r3, lsl #1
 800080c:	d019      	beq.n	8000842 <__aeabi_dmul+0x24a>
 800080e:	ea94 0f0c 	teq	r4, ip
 8000812:	d102      	bne.n	800081a <__aeabi_dmul+0x222>
 8000814:	ea50 3601 	orrs.w	r6, r0, r1, lsl #12
 8000818:	d113      	bne.n	8000842 <__aeabi_dmul+0x24a>
 800081a:	ea95 0f0c 	teq	r5, ip
 800081e:	d105      	bne.n	800082c <__aeabi_dmul+0x234>
 8000820:	ea52 3603 	orrs.w	r6, r2, r3, lsl #12
 8000824:	bf1c      	itt	ne
 8000826:	4610      	movne	r0, r2
 8000828:	4619      	movne	r1, r3
 800082a:	d10a      	bne.n	8000842 <__aeabi_dmul+0x24a>
 800082c:	ea81 0103 	eor.w	r1, r1, r3
 8000830:	f001 4100 	and.w	r1, r1, #2147483648	@ 0x80000000
 8000834:	f041 41fe 	orr.w	r1, r1, #2130706432	@ 0x7f000000
 8000838:	f441 0170 	orr.w	r1, r1, #15728640	@ 0xf00000
 800083c:	f04f 0000 	mov.w	r0, #0
 8000840:	bd70      	pop	{r4, r5, r6, pc}
 8000842:	f041 41fe 	orr.w	r1, r1, #2130706432	@ 0x7f000000
 8000846:	f441 0178 	orr.w	r1, r1, #16252928	@ 0xf80000
 800084a:	bd70      	pop	{r4, r5, r6, pc}

0800084c <__aeabi_ddiv>:
 800084c:	b570      	push	{r4, r5, r6, lr}
 800084e:	f04f 0cff 	mov.w	ip, #255	@ 0xff
 8000852:	f44c 6ce0 	orr.w	ip, ip, #1792	@ 0x700
 8000856:	ea1c 5411 	ands.w	r4, ip, r1, lsr #20
 800085a:	bf1d      	ittte	ne
 800085c:	ea1c 5513 	andsne.w	r5, ip, r3, lsr #20
 8000860:	ea94 0f0c 	teqne	r4, ip
 8000864:	ea95 0f0c 	teqne	r5, ip
 8000868:	f000 f8a7 	bleq	80009ba <__aeabi_ddiv+0x16e>
 800086c:	eba4 0405 	sub.w	r4, r4, r5
 8000870:	ea81 0e03 	eor.w	lr, r1, r3
 8000874:	ea52 3503 	orrs.w	r5, r2, r3, lsl #12
 8000878:	ea4f 3101 	mov.w	r1, r1, lsl #12
 800087c:	f000 8088 	beq.w	8000990 <__aeabi_ddiv+0x144>
 8000880:	ea4f 3303 	mov.w	r3, r3, lsl #12
 8000884:	f04f 5580 	mov.w	r5, #268435456	@ 0x10000000
 8000888:	ea45 1313 	orr.w	r3, r5, r3, lsr #4
 800088c:	ea43 6312 	orr.w	r3, r3, r2, lsr #24
 8000890:	ea4f 2202 	mov.w	r2, r2, lsl #8
 8000894:	ea45 1511 	orr.w	r5, r5, r1, lsr #4
 8000898:	ea45 6510 	orr.w	r5, r5, r0, lsr #24
 800089c:	ea4f 2600 	mov.w	r6, r0, lsl #8
 80008a0:	f00e 4100 	and.w	r1, lr, #2147483648	@ 0x80000000
 80008a4:	429d      	cmp	r5, r3
 80008a6:	bf08      	it	eq
 80008a8:	4296      	cmpeq	r6, r2
 80008aa:	f144 04fd 	adc.w	r4, r4, #253	@ 0xfd
 80008ae:	f504 7440 	add.w	r4, r4, #768	@ 0x300
 80008b2:	d202      	bcs.n	80008ba <__aeabi_ddiv+0x6e>
 80008b4:	085b      	lsrs	r3, r3, #1
 80008b6:	ea4f 0232 	mov.w	r2, r2, rrx
 80008ba:	1ab6      	subs	r6, r6, r2
 80008bc:	eb65 0503 	sbc.w	r5, r5, r3
 80008c0:	085b      	lsrs	r3, r3, #1
 80008c2:	ea4f 0232 	mov.w	r2, r2, rrx
 80008c6:	f44f 1080 	mov.w	r0, #1048576	@ 0x100000
 80008ca:	f44f 2c00 	mov.w	ip, #524288	@ 0x80000
 80008ce:	ebb6 0e02 	subs.w	lr, r6, r2
 80008d2:	eb75 0e03 	sbcs.w	lr, r5, r3
 80008d6:	bf22      	ittt	cs
 80008d8:	1ab6      	subcs	r6, r6, r2
 80008da:	4675      	movcs	r5, lr
 80008dc:	ea40 000c 	orrcs.w	r0, r0, ip
 80008e0:	085b      	lsrs	r3, r3, #1
 80008e2:	ea4f 0232 	mov.w	r2, r2, rrx
 80008e6:	ebb6 0e02 	subs.w	lr, r6, r2
 80008ea:	eb75 0e03 	sbcs.w	lr, r5, r3
 80008ee:	bf22      	ittt	cs
 80008f0:	1ab6      	subcs	r6, r6, r2
 80008f2:	4675      	movcs	r5, lr
 80008f4:	ea40 005c 	orrcs.w	r0, r0, ip, lsr #1
 80008f8:	085b      	lsrs	r3, r3, #1
 80008fa:	ea4f 0232 	mov.w	r2, r2, rrx
 80008fe:	ebb6 0e02 	subs.w	lr, r6, r2
 8000902:	eb75 0e03 	sbcs.w	lr, r5, r3
 8000906:	bf22      	ittt	cs
 8000908:	1ab6      	subcs	r6, r6, r2
 800090a:	4675      	movcs	r5, lr
 800090c:	ea40 009c 	orrcs.w	r0, r0, ip, lsr #2
 8000910:	085b      	lsrs	r3, r3, #1
 8000912:	ea4f 0232 	mov.w	r2, r2, rrx
 8000916:	ebb6 0e02 	subs.w	lr, r6, r2
 800091a:	eb75 0e03 	sbcs.w	lr, r5, r3
 800091e:	bf22      	ittt	cs
 8000920:	1ab6      	subcs	r6, r6, r2
 8000922:	4675      	movcs	r5, lr
 8000924:	ea40 00dc 	orrcs.w	r0, r0, ip, lsr #3
 8000928:	ea55 0e06 	orrs.w	lr, r5, r6
 800092c:	d018      	beq.n	8000960 <__aeabi_ddiv+0x114>
 800092e:	ea4f 1505 	mov.w	r5, r5, lsl #4
 8000932:	ea45 7516 	orr.w	r5, r5, r6, lsr #28
 8000936:	ea4f 1606 	mov.w	r6, r6, lsl #4
 800093a:	ea4f 03c3 	mov.w	r3, r3, lsl #3
 800093e:	ea43 7352 	orr.w	r3, r3, r2, lsr #29
 8000942:	ea4f 02c2 	mov.w	r2, r2, lsl #3
 8000946:	ea5f 1c1c 	movs.w	ip, ip, lsr #4
 800094a:	d1c0      	bne.n	80008ce <__aeabi_ddiv+0x82>
 800094c:	f411 1f80 	tst.w	r1, #1048576	@ 0x100000
 8000950:	d10b      	bne.n	800096a <__aeabi_ddiv+0x11e>
 8000952:	ea41 0100 	orr.w	r1, r1, r0
 8000956:	f04f 0000 	mov.w	r0, #0
 800095a:	f04f 4c00 	mov.w	ip, #2147483648	@ 0x80000000
 800095e:	e7b6      	b.n	80008ce <__aeabi_ddiv+0x82>
 8000960:	f411 1f80 	tst.w	r1, #1048576	@ 0x100000
 8000964:	bf04      	itt	eq
 8000966:	4301      	orreq	r1, r0
 8000968:	2000      	moveq	r0, #0
 800096a:	f1b4 0cfd 	subs.w	ip, r4, #253	@ 0xfd
 800096e:	bf88      	it	hi
 8000970:	f5bc 6fe0 	cmphi.w	ip, #1792	@ 0x700
 8000974:	f63f aeaf 	bhi.w	80006d6 <__aeabi_dmul+0xde>
 8000978:	ebb5 0c03 	subs.w	ip, r5, r3
 800097c:	bf04      	itt	eq
 800097e:	ebb6 0c02 	subseq.w	ip, r6, r2
 8000982:	ea5f 0c50 	movseq.w	ip, r0, lsr #1
 8000986:	f150 0000 	adcs.w	r0, r0, #0
 800098a:	eb41 5104 	adc.w	r1, r1, r4, lsl #20
 800098e:	bd70      	pop	{r4, r5, r6, pc}
 8000990:	f00e 4e00 	and.w	lr, lr, #2147483648	@ 0x80000000
 8000994:	ea4e 3111 	orr.w	r1, lr, r1, lsr #12
 8000998:	eb14 045c 	adds.w	r4, r4, ip, lsr #1
 800099c:	bfc2      	ittt	gt
 800099e:	ebd4 050c 	rsbsgt	r5, r4, ip
 80009a2:	ea41 5104 	orrgt.w	r1, r1, r4, lsl #20
 80009a6:	bd70      	popgt	{r4, r5, r6, pc}
 80009a8:	f441 1180 	orr.w	r1, r1, #1048576	@ 0x100000
 80009ac:	f04f 0e00 	mov.w	lr, #0
 80009b0:	3c01      	subs	r4, #1
 80009b2:	e690      	b.n	80006d6 <__aeabi_dmul+0xde>
 80009b4:	ea45 0e06 	orr.w	lr, r5, r6
 80009b8:	e68d      	b.n	80006d6 <__aeabi_dmul+0xde>
 80009ba:	ea0c 5513 	and.w	r5, ip, r3, lsr #20
 80009be:	ea94 0f0c 	teq	r4, ip
 80009c2:	bf08      	it	eq
 80009c4:	ea95 0f0c 	teqeq	r5, ip
 80009c8:	f43f af3b 	beq.w	8000842 <__aeabi_dmul+0x24a>
 80009cc:	ea94 0f0c 	teq	r4, ip
 80009d0:	d10a      	bne.n	80009e8 <__aeabi_ddiv+0x19c>
 80009d2:	ea50 3401 	orrs.w	r4, r0, r1, lsl #12
 80009d6:	f47f af34 	bne.w	8000842 <__aeabi_dmul+0x24a>
 80009da:	ea95 0f0c 	teq	r5, ip
 80009de:	f47f af25 	bne.w	800082c <__aeabi_dmul+0x234>
 80009e2:	4610      	mov	r0, r2
 80009e4:	4619      	mov	r1, r3
 80009e6:	e72c      	b.n	8000842 <__aeabi_dmul+0x24a>
 80009e8:	ea95 0f0c 	teq	r5, ip
 80009ec:	d106      	bne.n	80009fc <__aeabi_ddiv+0x1b0>
 80009ee:	ea52 3503 	orrs.w	r5, r2, r3, lsl #12
 80009f2:	f43f aefd 	beq.w	80007f0 <__aeabi_dmul+0x1f8>
 80009f6:	4610      	mov	r0, r2
 80009f8:	4619      	mov	r1, r3
 80009fa:	e722      	b.n	8000842 <__aeabi_dmul+0x24a>
 80009fc:	ea50 0641 	orrs.w	r6, r0, r1, lsl #1
 8000a00:	bf18      	it	ne
 8000a02:	ea52 0643 	orrsne.w	r6, r2, r3, lsl #1
 8000a06:	f47f aec5 	bne.w	8000794 <__aeabi_dmul+0x19c>
 8000a0a:	ea50 0441 	orrs.w	r4, r0, r1, lsl #1
 8000a0e:	f47f af0d 	bne.w	800082c <__aeabi_dmul+0x234>
 8000a12:	ea52 0543 	orrs.w	r5, r2, r3, lsl #1
 8000a16:	f47f aeeb 	bne.w	80007f0 <__aeabi_dmul+0x1f8>
 8000a1a:	e712      	b.n	8000842 <__aeabi_dmul+0x24a>

08000a1c <__gedf2>:
 8000a1c:	f04f 3cff 	mov.w	ip, #4294967295
 8000a20:	e006      	b.n	8000a30 <__cmpdf2+0x4>
 8000a22:	bf00      	nop

08000a24 <__ledf2>:
 8000a24:	f04f 0c01 	mov.w	ip, #1
 8000a28:	e002      	b.n	8000a30 <__cmpdf2+0x4>
 8000a2a:	bf00      	nop

08000a2c <__cmpdf2>:
 8000a2c:	f04f 0c01 	mov.w	ip, #1
 8000a30:	f84d cd04 	str.w	ip, [sp, #-4]!
 8000a34:	ea4f 0c41 	mov.w	ip, r1, lsl #1
 8000a38:	ea7f 5c6c 	mvns.w	ip, ip, asr #21
 8000a3c:	ea4f 0c43 	mov.w	ip, r3, lsl #1
 8000a40:	bf18      	it	ne
 8000a42:	ea7f 5c6c 	mvnsne.w	ip, ip, asr #21
 8000a46:	d01b      	beq.n	8000a80 <__cmpdf2+0x54>
 8000a48:	b001      	add	sp, #4
 8000a4a:	ea50 0c41 	orrs.w	ip, r0, r1, lsl #1
 8000a4e:	bf0c      	ite	eq
 8000a50:	ea52 0c43 	orrseq.w	ip, r2, r3, lsl #1
 8000a54:	ea91 0f03 	teqne	r1, r3
 8000a58:	bf02      	ittt	eq
 8000a5a:	ea90 0f02 	teqeq	r0, r2
 8000a5e:	2000      	moveq	r0, #0
 8000a60:	4770      	bxeq	lr
 8000a62:	f110 0f00 	cmn.w	r0, #0
 8000a66:	ea91 0f03 	teq	r1, r3
 8000a6a:	bf58      	it	pl
 8000a6c:	4299      	cmppl	r1, r3
 8000a6e:	bf08      	it	eq
 8000a70:	4290      	cmpeq	r0, r2
 8000a72:	bf2c      	ite	cs
 8000a74:	17d8      	asrcs	r0, r3, #31
 8000a76:	ea6f 70e3 	mvncc.w	r0, r3, asr #31
 8000a7a:	f040 0001 	orr.w	r0, r0, #1
 8000a7e:	4770      	bx	lr
 8000a80:	ea4f 0c41 	mov.w	ip, r1, lsl #1
 8000a84:	ea7f 5c6c 	mvns.w	ip, ip, asr #21
 8000a88:	d102      	bne.n	8000a90 <__cmpdf2+0x64>
 8000a8a:	ea50 3c01 	orrs.w	ip, r0, r1, lsl #12
 8000a8e:	d107      	bne.n	8000aa0 <__cmpdf2+0x74>
 8000a90:	ea4f 0c43 	mov.w	ip, r3, lsl #1
 8000a94:	ea7f 5c6c 	mvns.w	ip, ip, asr #21
 8000a98:	d1d6      	bne.n	8000a48 <__cmpdf2+0x1c>
 8000a9a:	ea52 3c03 	orrs.w	ip, r2, r3, lsl #12
 8000a9e:	d0d3      	beq.n	8000a48 <__cmpdf2+0x1c>
 8000aa0:	f85d 0b04 	ldr.w	r0, [sp], #4
 8000aa4:	4770      	bx	lr
 8000aa6:	bf00      	nop

08000aa8 <__aeabi_cdrcmple>:
 8000aa8:	4684      	mov	ip, r0
 8000aaa:	4610      	mov	r0, r2
 8000aac:	4662      	mov	r2, ip
 8000aae:	468c      	mov	ip, r1
 8000ab0:	4619      	mov	r1, r3
 8000ab2:	4663      	mov	r3, ip
 8000ab4:	e000      	b.n	8000ab8 <__aeabi_cdcmpeq>
 8000ab6:	bf00      	nop

08000ab8 <__aeabi_cdcmpeq>:
 8000ab8:	b501      	push	{r0, lr}
 8000aba:	f7ff ffb7 	bl	8000a2c <__cmpdf2>
 8000abe:	2800      	cmp	r0, #0
 8000ac0:	bf48      	it	mi
 8000ac2:	f110 0f00 	cmnmi.w	r0, #0
 8000ac6:	bd01      	pop	{r0, pc}

08000ac8 <__aeabi_dcmpeq>:
 8000ac8:	f84d ed08 	str.w	lr, [sp, #-8]!
 8000acc:	f7ff fff4 	bl	8000ab8 <__aeabi_cdcmpeq>
 8000ad0:	bf0c      	ite	eq
 8000ad2:	2001      	moveq	r0, #1
 8000ad4:	2000      	movne	r0, #0
 8000ad6:	f85d fb08 	ldr.w	pc, [sp], #8
 8000ada:	bf00      	nop

08000adc <__aeabi_dcmplt>:
 8000adc:	f84d ed08 	str.w	lr, [sp, #-8]!
 8000ae0:	f7ff ffea 	bl	8000ab8 <__aeabi_cdcmpeq>
 8000ae4:	bf34      	ite	cc
 8000ae6:	2001      	movcc	r0, #1
 8000ae8:	2000      	movcs	r0, #0
 8000aea:	f85d fb08 	ldr.w	pc, [sp], #8
 8000aee:	bf00      	nop

08000af0 <__aeabi_dcmple>:
 8000af0:	f84d ed08 	str.w	lr, [sp, #-8]!
 8000af4:	f7ff ffe0 	bl	8000ab8 <__aeabi_cdcmpeq>
 8000af8:	bf94      	ite	ls
 8000afa:	2001      	movls	r0, #1
 8000afc:	2000      	movhi	r0, #0
 8000afe:	f85d fb08 	ldr.w	pc, [sp], #8
 8000b02:	bf00      	nop

08000b04 <__aeabi_dcmpge>:
 8000b04:	f84d ed08 	str.w	lr, [sp, #-8]!
 8000b08:	f7ff ffce 	bl	8000aa8 <__aeabi_cdrcmple>
 8000b0c:	bf94      	ite	ls
 8000b0e:	2001      	movls	r0, #1
 8000b10:	2000      	movhi	r0, #0
 8000b12:	f85d fb08 	ldr.w	pc, [sp], #8
 8000b16:	bf00      	nop

08000b18 <__aeabi_dcmpgt>:
 8000b18:	f84d ed08 	str.w	lr, [sp, #-8]!
 8000b1c:	f7ff ffc4 	bl	8000aa8 <__aeabi_cdrcmple>
 8000b20:	bf34      	ite	cc
 8000b22:	2001      	movcc	r0, #1
 8000b24:	2000      	movcs	r0, #0
 8000b26:	f85d fb08 	ldr.w	pc, [sp], #8
 8000b2a:	bf00      	nop

08000b2c <__aeabi_dcmpun>:
 8000b2c:	ea4f 0c41 	mov.w	ip, r1, lsl #1
 8000b30:	ea7f 5c6c 	mvns.w	ip, ip, asr #21
 8000b34:	d102      	bne.n	8000b3c <__aeabi_dcmpun+0x10>
 8000b36:	ea50 3c01 	orrs.w	ip, r0, r1, lsl #12
 8000b3a:	d10a      	bne.n	8000b52 <__aeabi_dcmpun+0x26>
 8000b3c:	ea4f 0c43 	mov.w	ip, r3, lsl #1
 8000b40:	ea7f 5c6c 	mvns.w	ip, ip, asr #21
 8000b44:	d102      	bne.n	8000b4c <__aeabi_dcmpun+0x20>
 8000b46:	ea52 3c03 	orrs.w	ip, r2, r3, lsl #12
 8000b4a:	d102      	bne.n	8000b52 <__aeabi_dcmpun+0x26>
 8000b4c:	f04f 0000 	mov.w	r0, #0
 8000b50:	4770      	bx	lr
 8000b52:	f04f 0001 	mov.w	r0, #1
 8000b56:	4770      	bx	lr

08000b58 <__aeabi_d2iz>:
 8000b58:	ea4f 0241 	mov.w	r2, r1, lsl #1
 8000b5c:	f512 1200 	adds.w	r2, r2, #2097152	@ 0x200000
 8000b60:	d215      	bcs.n	8000b8e <__aeabi_d2iz+0x36>
 8000b62:	d511      	bpl.n	8000b88 <__aeabi_d2iz+0x30>
 8000b64:	f46f 7378 	mvn.w	r3, #992	@ 0x3e0
 8000b68:	ebb3 5262 	subs.w	r2, r3, r2, asr #21
 8000b6c:	d912      	bls.n	8000b94 <__aeabi_d2iz+0x3c>
 8000b6e:	ea4f 23c1 	mov.w	r3, r1, lsl #11
 8000b72:	f043 4300 	orr.w	r3, r3, #2147483648	@ 0x80000000
 8000b76:	ea43 5350 	orr.w	r3, r3, r0, lsr #21
 8000b7a:	f011 4f00 	tst.w	r1, #2147483648	@ 0x80000000
 8000b7e:	fa23 f002 	lsr.w	r0, r3, r2
 8000b82:	bf18      	it	ne
 8000b84:	4240      	negne	r0, r0
 8000b86:	4770      	bx	lr
 8000b88:	f04f 0000 	mov.w	r0, #0
 8000b8c:	4770      	bx	lr
 8000b8e:	ea50 3001 	orrs.w	r0, r0, r1, lsl #12
 8000b92:	d105      	bne.n	8000ba0 <__aeabi_d2iz+0x48>
 8000b94:	f011 4000 	ands.w	r0, r1, #2147483648	@ 0x80000000
 8000b98:	bf08      	it	eq
 8000b9a:	f06f 4000 	mvneq.w	r0, #2147483648	@ 0x80000000
 8000b9e:	4770      	bx	lr
 8000ba0:	f04f 0000 	mov.w	r0, #0
 8000ba4:	4770      	bx	lr
 8000ba6:	bf00      	nop

08000ba8 <__aeabi_d2f>:
 8000ba8:	ea4f 0241 	mov.w	r2, r1, lsl #1
 8000bac:	f1b2 43e0 	subs.w	r3, r2, #1879048192	@ 0x70000000
 8000bb0:	bf24      	itt	cs
 8000bb2:	f5b3 1c00 	subscs.w	ip, r3, #2097152	@ 0x200000
 8000bb6:	f1dc 5cfe 	rsbscs	ip, ip, #532676608	@ 0x1fc00000
 8000bba:	d90d      	bls.n	8000bd8 <__aeabi_d2f+0x30>
 8000bbc:	f001 4c00 	and.w	ip, r1, #2147483648	@ 0x80000000
 8000bc0:	ea4f 02c0 	mov.w	r2, r0, lsl #3
 8000bc4:	ea4c 7050 	orr.w	r0, ip, r0, lsr #29
 8000bc8:	f1b2 4f00 	cmp.w	r2, #2147483648	@ 0x80000000
 8000bcc:	eb40 0083 	adc.w	r0, r0, r3, lsl #2
 8000bd0:	bf08      	it	eq
 8000bd2:	f020 0001 	biceq.w	r0, r0, #1
 8000bd6:	4770      	bx	lr
 8000bd8:	f011 4f80 	tst.w	r1, #1073741824	@ 0x40000000
 8000bdc:	d121      	bne.n	8000c22 <__aeabi_d2f+0x7a>
 8000bde:	f113 7238 	adds.w	r2, r3, #48234496	@ 0x2e00000
 8000be2:	bfbc      	itt	lt
 8000be4:	f001 4000 	andlt.w	r0, r1, #2147483648	@ 0x80000000
 8000be8:	4770      	bxlt	lr
 8000bea:	f441 1180 	orr.w	r1, r1, #1048576	@ 0x100000
 8000bee:	ea4f 5252 	mov.w	r2, r2, lsr #21
 8000bf2:	f1c2 0218 	rsb	r2, r2, #24
 8000bf6:	f1c2 0c20 	rsb	ip, r2, #32
 8000bfa:	fa10 f30c 	lsls.w	r3, r0, ip
 8000bfe:	fa20 f002 	lsr.w	r0, r0, r2
 8000c02:	bf18      	it	ne
 8000c04:	f040 0001 	orrne.w	r0, r0, #1
 8000c08:	ea4f 23c1 	mov.w	r3, r1, lsl #11
 8000c0c:	ea4f 23d3 	mov.w	r3, r3, lsr #11
 8000c10:	fa03 fc0c 	lsl.w	ip, r3, ip
 8000c14:	ea40 000c 	orr.w	r0, r0, ip
 8000c18:	fa23 f302 	lsr.w	r3, r3, r2
 8000c1c:	ea4f 0343 	mov.w	r3, r3, lsl #1
 8000c20:	e7cc      	b.n	8000bbc <__aeabi_d2f+0x14>
 8000c22:	ea7f 5362 	mvns.w	r3, r2, asr #21
 8000c26:	d107      	bne.n	8000c38 <__aeabi_d2f+0x90>
 8000c28:	ea50 3301 	orrs.w	r3, r0, r1, lsl #12
 8000c2c:	bf1e      	ittt	ne
 8000c2e:	f04f 40fe 	movne.w	r0, #2130706432	@ 0x7f000000
 8000c32:	f440 0040 	orrne.w	r0, r0, #12582912	@ 0xc00000
 8000c36:	4770      	bxne	lr
 8000c38:	f001 4000 	and.w	r0, r1, #2147483648	@ 0x80000000
 8000c3c:	f040 40fe 	orr.w	r0, r0, #2130706432	@ 0x7f000000
 8000c40:	f440 0000 	orr.w	r0, r0, #8388608	@ 0x800000
 8000c44:	4770      	bx	lr
 8000c46:	bf00      	nop

08000c48 <GPIO_PeriClockControl>:
 *
 * @return  None
 *
 * @note    Clock must be enabled before using any GPIO register
 */
void GPIO_PeriClockControl(GPIO_TypeDef *pGPIOx, uint8_t En_or_Dis) {
 8000c48:	b480      	push	{r7}
 8000c4a:	b083      	sub	sp, #12
 8000c4c:	af00      	add	r7, sp, #0
 8000c4e:	6078      	str	r0, [r7, #4]
 8000c50:	460b      	mov	r3, r1
 8000c52:	70fb      	strb	r3, [r7, #3]
	if (En_or_Dis == ENABLE) {
 8000c54:	78fb      	ldrb	r3, [r7, #3]
 8000c56:	2b01      	cmp	r3, #1
 8000c58:	d157      	bne.n	8000d0a <GPIO_PeriClockControl+0xc2>
		if (pGPIOx == GPIOA)
 8000c5a:	687b      	ldr	r3, [r7, #4]
 8000c5c:	f1b3 4f90 	cmp.w	r3, #1207959552	@ 0x48000000
 8000c60:	d106      	bne.n	8000c70 <GPIO_PeriClockControl+0x28>
			GPIOA_CLK_ENABLE();
 8000c62:	4b58      	ldr	r3, [pc, #352]	@ (8000dc4 <GPIO_PeriClockControl+0x17c>)
 8000c64:	6cdb      	ldr	r3, [r3, #76]	@ 0x4c
 8000c66:	4a57      	ldr	r2, [pc, #348]	@ (8000dc4 <GPIO_PeriClockControl+0x17c>)
 8000c68:	f043 0301 	orr.w	r3, r3, #1
 8000c6c:	64d3      	str	r3, [r2, #76]	@ 0x4c
		else if (pGPIOx == GPIOG)
			GPIOG_CLK_DISABLE();
		else if (pGPIOx == GPIOH)
			GPIOH_CLK_DISABLE();
	}
}
 8000c6e:	e0a3      	b.n	8000db8 <GPIO_PeriClockControl+0x170>
		else if (pGPIOx == GPIOB)
 8000c70:	687b      	ldr	r3, [r7, #4]
 8000c72:	4a55      	ldr	r2, [pc, #340]	@ (8000dc8 <GPIO_PeriClockControl+0x180>)
 8000c74:	4293      	cmp	r3, r2
 8000c76:	d106      	bne.n	8000c86 <GPIO_PeriClockControl+0x3e>
			GPIOB_CLK_ENABLE();
 8000c78:	4b52      	ldr	r3, [pc, #328]	@ (8000dc4 <GPIO_PeriClockControl+0x17c>)
 8000c7a:	6cdb      	ldr	r3, [r3, #76]	@ 0x4c
 8000c7c:	4a51      	ldr	r2, [pc, #324]	@ (8000dc4 <GPIO_PeriClockControl+0x17c>)
 8000c7e:	f043 0302 	orr.w	r3, r3, #2
 8000c82:	64d3      	str	r3, [r2, #76]	@ 0x4c
}
 8000c84:	e098      	b.n	8000db8 <GPIO_PeriClockControl+0x170>
		else if (pGPIOx == GPIOC)
 8000c86:	687b      	ldr	r3, [r7, #4]
 8000c88:	4a50      	ldr	r2, [pc, #320]	@ (8000dcc <GPIO_PeriClockControl+0x184>)
 8000c8a:	4293      	cmp	r3, r2
 8000c8c:	d106      	bne.n	8000c9c <GPIO_PeriClockControl+0x54>
			GPIOC_CLK_ENABLE();
 8000c8e:	4b4d      	ldr	r3, [pc, #308]	@ (8000dc4 <GPIO_PeriClockControl+0x17c>)
 8000c90:	6cdb      	ldr	r3, [r3, #76]	@ 0x4c
 8000c92:	4a4c      	ldr	r2, [pc, #304]	@ (8000dc4 <GPIO_PeriClockControl+0x17c>)
 8000c94:	f043 0304 	orr.w	r3, r3, #4
 8000c98:	64d3      	str	r3, [r2, #76]	@ 0x4c
}
 8000c9a:	e08d      	b.n	8000db8 <GPIO_PeriClockControl+0x170>
		else if (pGPIOx == GPIOD)
 8000c9c:	687b      	ldr	r3, [r7, #4]
 8000c9e:	4a4c      	ldr	r2, [pc, #304]	@ (8000dd0 <GPIO_PeriClockControl+0x188>)
 8000ca0:	4293      	cmp	r3, r2
 8000ca2:	d106      	bne.n	8000cb2 <GPIO_PeriClockControl+0x6a>
			GPIOD_CLK_ENABLE();
 8000ca4:	4b47      	ldr	r3, [pc, #284]	@ (8000dc4 <GPIO_PeriClockControl+0x17c>)
 8000ca6:	6cdb      	ldr	r3, [r3, #76]	@ 0x4c
 8000ca8:	4a46      	ldr	r2, [pc, #280]	@ (8000dc4 <GPIO_PeriClockControl+0x17c>)
 8000caa:	f043 0308 	orr.w	r3, r3, #8
 8000cae:	64d3      	str	r3, [r2, #76]	@ 0x4c
}
 8000cb0:	e082      	b.n	8000db8 <GPIO_PeriClockControl+0x170>
		else if (pGPIOx == GPIOE)
 8000cb2:	687b      	ldr	r3, [r7, #4]
 8000cb4:	4a47      	ldr	r2, [pc, #284]	@ (8000dd4 <GPIO_PeriClockControl+0x18c>)
 8000cb6:	4293      	cmp	r3, r2
 8000cb8:	d106      	bne.n	8000cc8 <GPIO_PeriClockControl+0x80>
			GPIOE_CLK_ENABLE();
 8000cba:	4b42      	ldr	r3, [pc, #264]	@ (8000dc4 <GPIO_PeriClockControl+0x17c>)
 8000cbc:	6cdb      	ldr	r3, [r3, #76]	@ 0x4c
 8000cbe:	4a41      	ldr	r2, [pc, #260]	@ (8000dc4 <GPIO_PeriClockControl+0x17c>)
 8000cc0:	f043 0310 	orr.w	r3, r3, #16
 8000cc4:	64d3      	str	r3, [r2, #76]	@ 0x4c
}
 8000cc6:	e077      	b.n	8000db8 <GPIO_PeriClockControl+0x170>
		else if (pGPIOx == GPIOF)
 8000cc8:	687b      	ldr	r3, [r7, #4]
 8000cca:	4a43      	ldr	r2, [pc, #268]	@ (8000dd8 <GPIO_PeriClockControl+0x190>)
 8000ccc:	4293      	cmp	r3, r2
 8000cce:	d106      	bne.n	8000cde <GPIO_PeriClockControl+0x96>
			GPIOF_CLK_ENABLE();
 8000cd0:	4b3c      	ldr	r3, [pc, #240]	@ (8000dc4 <GPIO_PeriClockControl+0x17c>)
 8000cd2:	6cdb      	ldr	r3, [r3, #76]	@ 0x4c
 8000cd4:	4a3b      	ldr	r2, [pc, #236]	@ (8000dc4 <GPIO_PeriClockControl+0x17c>)
 8000cd6:	f043 0320 	orr.w	r3, r3, #32
 8000cda:	64d3      	str	r3, [r2, #76]	@ 0x4c
}
 8000cdc:	e06c      	b.n	8000db8 <GPIO_PeriClockControl+0x170>
		else if (pGPIOx == GPIOG)
 8000cde:	687b      	ldr	r3, [r7, #4]
 8000ce0:	4a3e      	ldr	r2, [pc, #248]	@ (8000ddc <GPIO_PeriClockControl+0x194>)
 8000ce2:	4293      	cmp	r3, r2
 8000ce4:	d106      	bne.n	8000cf4 <GPIO_PeriClockControl+0xac>
			GPIOG_CLK_ENABLE();
 8000ce6:	4b37      	ldr	r3, [pc, #220]	@ (8000dc4 <GPIO_PeriClockControl+0x17c>)
 8000ce8:	6cdb      	ldr	r3, [r3, #76]	@ 0x4c
 8000cea:	4a36      	ldr	r2, [pc, #216]	@ (8000dc4 <GPIO_PeriClockControl+0x17c>)
 8000cec:	f043 0340 	orr.w	r3, r3, #64	@ 0x40
 8000cf0:	64d3      	str	r3, [r2, #76]	@ 0x4c
}
 8000cf2:	e061      	b.n	8000db8 <GPIO_PeriClockControl+0x170>
		else if (pGPIOx == GPIOH)
 8000cf4:	687b      	ldr	r3, [r7, #4]
 8000cf6:	4a3a      	ldr	r2, [pc, #232]	@ (8000de0 <GPIO_PeriClockControl+0x198>)
 8000cf8:	4293      	cmp	r3, r2
 8000cfa:	d15d      	bne.n	8000db8 <GPIO_PeriClockControl+0x170>
			GPIOH_CLK_ENABLE();
 8000cfc:	4b31      	ldr	r3, [pc, #196]	@ (8000dc4 <GPIO_PeriClockControl+0x17c>)
 8000cfe:	6cdb      	ldr	r3, [r3, #76]	@ 0x4c
 8000d00:	4a30      	ldr	r2, [pc, #192]	@ (8000dc4 <GPIO_PeriClockControl+0x17c>)
 8000d02:	f043 0380 	orr.w	r3, r3, #128	@ 0x80
 8000d06:	64d3      	str	r3, [r2, #76]	@ 0x4c
}
 8000d08:	e056      	b.n	8000db8 <GPIO_PeriClockControl+0x170>
		if (pGPIOx == GPIOA)
 8000d0a:	687b      	ldr	r3, [r7, #4]
 8000d0c:	f1b3 4f90 	cmp.w	r3, #1207959552	@ 0x48000000
 8000d10:	d106      	bne.n	8000d20 <GPIO_PeriClockControl+0xd8>
			GPIOA_CLK_DISABLE();
 8000d12:	4b2c      	ldr	r3, [pc, #176]	@ (8000dc4 <GPIO_PeriClockControl+0x17c>)
 8000d14:	6cdb      	ldr	r3, [r3, #76]	@ 0x4c
 8000d16:	4a2b      	ldr	r2, [pc, #172]	@ (8000dc4 <GPIO_PeriClockControl+0x17c>)
 8000d18:	f023 0301 	bic.w	r3, r3, #1
 8000d1c:	64d3      	str	r3, [r2, #76]	@ 0x4c
}
 8000d1e:	e04b      	b.n	8000db8 <GPIO_PeriClockControl+0x170>
		else if (pGPIOx == GPIOB)
 8000d20:	687b      	ldr	r3, [r7, #4]
 8000d22:	4a29      	ldr	r2, [pc, #164]	@ (8000dc8 <GPIO_PeriClockControl+0x180>)
 8000d24:	4293      	cmp	r3, r2
 8000d26:	d106      	bne.n	8000d36 <GPIO_PeriClockControl+0xee>
			GPIOB_CLK_DISABLE();
 8000d28:	4b26      	ldr	r3, [pc, #152]	@ (8000dc4 <GPIO_PeriClockControl+0x17c>)
 8000d2a:	6cdb      	ldr	r3, [r3, #76]	@ 0x4c
 8000d2c:	4a25      	ldr	r2, [pc, #148]	@ (8000dc4 <GPIO_PeriClockControl+0x17c>)
 8000d2e:	f023 0302 	bic.w	r3, r3, #2
 8000d32:	64d3      	str	r3, [r2, #76]	@ 0x4c
}
 8000d34:	e040      	b.n	8000db8 <GPIO_PeriClockControl+0x170>
		else if (pGPIOx == GPIOC)
 8000d36:	687b      	ldr	r3, [r7, #4]
 8000d38:	4a24      	ldr	r2, [pc, #144]	@ (8000dcc <GPIO_PeriClockControl+0x184>)
 8000d3a:	4293      	cmp	r3, r2
 8000d3c:	d106      	bne.n	8000d4c <GPIO_PeriClockControl+0x104>
			GPIOC_CLK_DISABLE();
 8000d3e:	4b21      	ldr	r3, [pc, #132]	@ (8000dc4 <GPIO_PeriClockControl+0x17c>)
 8000d40:	6cdb      	ldr	r3, [r3, #76]	@ 0x4c
 8000d42:	4a20      	ldr	r2, [pc, #128]	@ (8000dc4 <GPIO_PeriClockControl+0x17c>)
 8000d44:	f023 0304 	bic.w	r3, r3, #4
 8000d48:	64d3      	str	r3, [r2, #76]	@ 0x4c
}
 8000d4a:	e035      	b.n	8000db8 <GPIO_PeriClockControl+0x170>
		else if (pGPIOx == GPIOD)
 8000d4c:	687b      	ldr	r3, [r7, #4]
 8000d4e:	4a20      	ldr	r2, [pc, #128]	@ (8000dd0 <GPIO_PeriClockControl+0x188>)
 8000d50:	4293      	cmp	r3, r2
 8000d52:	d106      	bne.n	8000d62 <GPIO_PeriClockControl+0x11a>
			GPIOD_CLK_DISABLE();
 8000d54:	4b1b      	ldr	r3, [pc, #108]	@ (8000dc4 <GPIO_PeriClockControl+0x17c>)
 8000d56:	6cdb      	ldr	r3, [r3, #76]	@ 0x4c
 8000d58:	4a1a      	ldr	r2, [pc, #104]	@ (8000dc4 <GPIO_PeriClockControl+0x17c>)
 8000d5a:	f023 0308 	bic.w	r3, r3, #8
 8000d5e:	64d3      	str	r3, [r2, #76]	@ 0x4c
}
 8000d60:	e02a      	b.n	8000db8 <GPIO_PeriClockControl+0x170>
		else if (pGPIOx == GPIOE)
 8000d62:	687b      	ldr	r3, [r7, #4]
 8000d64:	4a1b      	ldr	r2, [pc, #108]	@ (8000dd4 <GPIO_PeriClockControl+0x18c>)
 8000d66:	4293      	cmp	r3, r2
 8000d68:	d106      	bne.n	8000d78 <GPIO_PeriClockControl+0x130>
			GPIOE_CLK_DISABLE();
 8000d6a:	4b16      	ldr	r3, [pc, #88]	@ (8000dc4 <GPIO_PeriClockControl+0x17c>)
 8000d6c:	6cdb      	ldr	r3, [r3, #76]	@ 0x4c
 8000d6e:	4a15      	ldr	r2, [pc, #84]	@ (8000dc4 <GPIO_PeriClockControl+0x17c>)
 8000d70:	f023 0310 	bic.w	r3, r3, #16
 8000d74:	64d3      	str	r3, [r2, #76]	@ 0x4c
}
 8000d76:	e01f      	b.n	8000db8 <GPIO_PeriClockControl+0x170>
		else if (pGPIOx == GPIOF)
 8000d78:	687b      	ldr	r3, [r7, #4]
 8000d7a:	4a17      	ldr	r2, [pc, #92]	@ (8000dd8 <GPIO_PeriClockControl+0x190>)
 8000d7c:	4293      	cmp	r3, r2
 8000d7e:	d106      	bne.n	8000d8e <GPIO_PeriClockControl+0x146>
			GPIOF_CLK_DISABLE();
 8000d80:	4b10      	ldr	r3, [pc, #64]	@ (8000dc4 <GPIO_PeriClockControl+0x17c>)
 8000d82:	6cdb      	ldr	r3, [r3, #76]	@ 0x4c
 8000d84:	4a0f      	ldr	r2, [pc, #60]	@ (8000dc4 <GPIO_PeriClockControl+0x17c>)
 8000d86:	f023 0320 	bic.w	r3, r3, #32
 8000d8a:	64d3      	str	r3, [r2, #76]	@ 0x4c
}
 8000d8c:	e014      	b.n	8000db8 <GPIO_PeriClockControl+0x170>
		else if (pGPIOx == GPIOG)
 8000d8e:	687b      	ldr	r3, [r7, #4]
 8000d90:	4a12      	ldr	r2, [pc, #72]	@ (8000ddc <GPIO_PeriClockControl+0x194>)
 8000d92:	4293      	cmp	r3, r2
 8000d94:	d106      	bne.n	8000da4 <GPIO_PeriClockControl+0x15c>
			GPIOG_CLK_DISABLE();
 8000d96:	4b0b      	ldr	r3, [pc, #44]	@ (8000dc4 <GPIO_PeriClockControl+0x17c>)
 8000d98:	6cdb      	ldr	r3, [r3, #76]	@ 0x4c
 8000d9a:	4a0a      	ldr	r2, [pc, #40]	@ (8000dc4 <GPIO_PeriClockControl+0x17c>)
 8000d9c:	f023 0340 	bic.w	r3, r3, #64	@ 0x40
 8000da0:	64d3      	str	r3, [r2, #76]	@ 0x4c
}
 8000da2:	e009      	b.n	8000db8 <GPIO_PeriClockControl+0x170>
		else if (pGPIOx == GPIOH)
 8000da4:	687b      	ldr	r3, [r7, #4]
 8000da6:	4a0e      	ldr	r2, [pc, #56]	@ (8000de0 <GPIO_PeriClockControl+0x198>)
 8000da8:	4293      	cmp	r3, r2
 8000daa:	d105      	bne.n	8000db8 <GPIO_PeriClockControl+0x170>
			GPIOH_CLK_DISABLE();
 8000dac:	4b05      	ldr	r3, [pc, #20]	@ (8000dc4 <GPIO_PeriClockControl+0x17c>)
 8000dae:	6cdb      	ldr	r3, [r3, #76]	@ 0x4c
 8000db0:	4a04      	ldr	r2, [pc, #16]	@ (8000dc4 <GPIO_PeriClockControl+0x17c>)
 8000db2:	f023 0380 	bic.w	r3, r3, #128	@ 0x80
 8000db6:	64d3      	str	r3, [r2, #76]	@ 0x4c
}
 8000db8:	bf00      	nop
 8000dba:	370c      	adds	r7, #12
 8000dbc:	46bd      	mov	sp, r7
 8000dbe:	f85d 7b04 	ldr.w	r7, [sp], #4
 8000dc2:	4770      	bx	lr
 8000dc4:	40021000 	.word	0x40021000
 8000dc8:	48000400 	.word	0x48000400
 8000dcc:	48000800 	.word	0x48000800
 8000dd0:	48000c00 	.word	0x48000c00
 8000dd4:	48001000 	.word	0x48001000
 8000dd8:	48001400 	.word	0x48001400
 8000ddc:	48001800 	.word	0x48001800
 8000de0:	48001c00 	.word	0x48001c00

08000de4 <GPIO_Init>:
 *
 * @return  None
 *
 * @note    Configures mode, speed, pull-up/down, output type and alternate function
 */
void GPIO_Init(GPIO_Handle_t *pGPIOHandle) {
 8000de4:	b580      	push	{r7, lr}
 8000de6:	b08a      	sub	sp, #40	@ 0x28
 8000de8:	af00      	add	r7, sp, #0
 8000dea:	6078      	str	r0, [r7, #4]
	GPIO_PeriClockControl(pGPIOHandle->pGPIOx, ENABLE);
 8000dec:	687b      	ldr	r3, [r7, #4]
 8000dee:	681b      	ldr	r3, [r3, #0]
 8000df0:	2101      	movs	r1, #1
 8000df2:	4618      	mov	r0, r3
 8000df4:	f7ff ff28 	bl	8000c48 <GPIO_PeriClockControl>

	uint32_t temp = 0;
 8000df8:	2300      	movs	r3, #0
 8000dfa:	623b      	str	r3, [r7, #32]
	uint32_t pin = pGPIOHandle->GPIO_PinConfig.GPIO_PinNumber;
 8000dfc:	687b      	ldr	r3, [r7, #4]
 8000dfe:	791b      	ldrb	r3, [r3, #4]
 8000e00:	61fb      	str	r3, [r7, #28]

	/* -------- 1. MODE -------- */
	if (pGPIOHandle->GPIO_PinConfig.GPIO_PinMode <= GPIO_MODE_ANALOG) {
 8000e02:	687b      	ldr	r3, [r7, #4]
 8000e04:	795b      	ldrb	r3, [r3, #5]
 8000e06:	2b03      	cmp	r3, #3
 8000e08:	d81e      	bhi.n	8000e48 <GPIO_Init+0x64>
		temp = (pGPIOHandle->GPIO_PinConfig.GPIO_PinMode << (2 * pin));
 8000e0a:	687b      	ldr	r3, [r7, #4]
 8000e0c:	795b      	ldrb	r3, [r3, #5]
 8000e0e:	461a      	mov	r2, r3
 8000e10:	69fb      	ldr	r3, [r7, #28]
 8000e12:	005b      	lsls	r3, r3, #1
 8000e14:	fa02 f303 	lsl.w	r3, r2, r3
 8000e18:	623b      	str	r3, [r7, #32]
		pGPIOHandle->pGPIOx->MODER &= ~(0x3 << (2 * pin));
 8000e1a:	687b      	ldr	r3, [r7, #4]
 8000e1c:	681b      	ldr	r3, [r3, #0]
 8000e1e:	681a      	ldr	r2, [r3, #0]
 8000e20:	69fb      	ldr	r3, [r7, #28]
 8000e22:	005b      	lsls	r3, r3, #1
 8000e24:	2103      	movs	r1, #3
 8000e26:	fa01 f303 	lsl.w	r3, r1, r3
 8000e2a:	43db      	mvns	r3, r3
 8000e2c:	4619      	mov	r1, r3
 8000e2e:	687b      	ldr	r3, [r7, #4]
 8000e30:	681b      	ldr	r3, [r3, #0]
 8000e32:	400a      	ands	r2, r1
 8000e34:	601a      	str	r2, [r3, #0]
		pGPIOHandle->pGPIOx->MODER |= temp;
 8000e36:	687b      	ldr	r3, [r7, #4]
 8000e38:	681b      	ldr	r3, [r3, #0]
 8000e3a:	6819      	ldr	r1, [r3, #0]
 8000e3c:	687b      	ldr	r3, [r7, #4]
 8000e3e:	681b      	ldr	r3, [r3, #0]
 8000e40:	6a3a      	ldr	r2, [r7, #32]
 8000e42:	430a      	orrs	r2, r1
 8000e44:	601a      	str	r2, [r3, #0]
 8000e46:	e0ef      	b.n	8001028 <GPIO_Init+0x244>
	} else {
		/* interrupt mode → set as input */
		pGPIOHandle->pGPIOx->MODER &= ~(0x3 << (2 * pin));
 8000e48:	687b      	ldr	r3, [r7, #4]
 8000e4a:	681b      	ldr	r3, [r3, #0]
 8000e4c:	681a      	ldr	r2, [r3, #0]
 8000e4e:	69fb      	ldr	r3, [r7, #28]
 8000e50:	005b      	lsls	r3, r3, #1
 8000e52:	2103      	movs	r1, #3
 8000e54:	fa01 f303 	lsl.w	r3, r1, r3
 8000e58:	43db      	mvns	r3, r3
 8000e5a:	4619      	mov	r1, r3
 8000e5c:	687b      	ldr	r3, [r7, #4]
 8000e5e:	681b      	ldr	r3, [r3, #0]
 8000e60:	400a      	ands	r2, r1
 8000e62:	601a      	str	r2, [r3, #0]

		/* -------- Trigger config -------- */
		if (pGPIOHandle->GPIO_PinConfig.GPIO_PinMode == GPIO_MODE_IT_FT) {
 8000e64:	687b      	ldr	r3, [r7, #4]
 8000e66:	795b      	ldrb	r3, [r3, #5]
 8000e68:	2b04      	cmp	r3, #4
 8000e6a:	d115      	bne.n	8000e98 <GPIO_Init+0xb4>
			EXTI->FTSR1 |= (1 << pin);
 8000e6c:	4b47      	ldr	r3, [pc, #284]	@ (8000f8c <GPIO_Init+0x1a8>)
 8000e6e:	68db      	ldr	r3, [r3, #12]
 8000e70:	2101      	movs	r1, #1
 8000e72:	69fa      	ldr	r2, [r7, #28]
 8000e74:	fa01 f202 	lsl.w	r2, r1, r2
 8000e78:	4611      	mov	r1, r2
 8000e7a:	4a44      	ldr	r2, [pc, #272]	@ (8000f8c <GPIO_Init+0x1a8>)
 8000e7c:	430b      	orrs	r3, r1
 8000e7e:	60d3      	str	r3, [r2, #12]
			EXTI->RTSR1 &= ~(1 << pin);
 8000e80:	4b42      	ldr	r3, [pc, #264]	@ (8000f8c <GPIO_Init+0x1a8>)
 8000e82:	689b      	ldr	r3, [r3, #8]
 8000e84:	2101      	movs	r1, #1
 8000e86:	69fa      	ldr	r2, [r7, #28]
 8000e88:	fa01 f202 	lsl.w	r2, r1, r2
 8000e8c:	43d2      	mvns	r2, r2
 8000e8e:	4611      	mov	r1, r2
 8000e90:	4a3e      	ldr	r2, [pc, #248]	@ (8000f8c <GPIO_Init+0x1a8>)
 8000e92:	400b      	ands	r3, r1
 8000e94:	6093      	str	r3, [r2, #8]
 8000e96:	e031      	b.n	8000efc <GPIO_Init+0x118>
		} else if (pGPIOHandle->GPIO_PinConfig.GPIO_PinMode == GPIO_MODE_IT_RT) {
 8000e98:	687b      	ldr	r3, [r7, #4]
 8000e9a:	795b      	ldrb	r3, [r3, #5]
 8000e9c:	2b05      	cmp	r3, #5
 8000e9e:	d115      	bne.n	8000ecc <GPIO_Init+0xe8>
			EXTI->RTSR1 |= (1 << pin);
 8000ea0:	4b3a      	ldr	r3, [pc, #232]	@ (8000f8c <GPIO_Init+0x1a8>)
 8000ea2:	689b      	ldr	r3, [r3, #8]
 8000ea4:	2101      	movs	r1, #1
 8000ea6:	69fa      	ldr	r2, [r7, #28]
 8000ea8:	fa01 f202 	lsl.w	r2, r1, r2
 8000eac:	4611      	mov	r1, r2
 8000eae:	4a37      	ldr	r2, [pc, #220]	@ (8000f8c <GPIO_Init+0x1a8>)
 8000eb0:	430b      	orrs	r3, r1
 8000eb2:	6093      	str	r3, [r2, #8]
			EXTI->FTSR1 &= ~(1 << pin);
 8000eb4:	4b35      	ldr	r3, [pc, #212]	@ (8000f8c <GPIO_Init+0x1a8>)
 8000eb6:	68db      	ldr	r3, [r3, #12]
 8000eb8:	2101      	movs	r1, #1
 8000eba:	69fa      	ldr	r2, [r7, #28]
 8000ebc:	fa01 f202 	lsl.w	r2, r1, r2
 8000ec0:	43d2      	mvns	r2, r2
 8000ec2:	4611      	mov	r1, r2
 8000ec4:	4a31      	ldr	r2, [pc, #196]	@ (8000f8c <GPIO_Init+0x1a8>)
 8000ec6:	400b      	ands	r3, r1
 8000ec8:	60d3      	str	r3, [r2, #12]
 8000eca:	e017      	b.n	8000efc <GPIO_Init+0x118>
		} else if (pGPIOHandle->GPIO_PinConfig.GPIO_PinMode == GPIO_MODE_IT_RFT) {
 8000ecc:	687b      	ldr	r3, [r7, #4]
 8000ece:	795b      	ldrb	r3, [r3, #5]
 8000ed0:	2b06      	cmp	r3, #6
 8000ed2:	d113      	bne.n	8000efc <GPIO_Init+0x118>
			EXTI->RTSR1 |= (1 << pin);
 8000ed4:	4b2d      	ldr	r3, [pc, #180]	@ (8000f8c <GPIO_Init+0x1a8>)
 8000ed6:	689b      	ldr	r3, [r3, #8]
 8000ed8:	2101      	movs	r1, #1
 8000eda:	69fa      	ldr	r2, [r7, #28]
 8000edc:	fa01 f202 	lsl.w	r2, r1, r2
 8000ee0:	4611      	mov	r1, r2
 8000ee2:	4a2a      	ldr	r2, [pc, #168]	@ (8000f8c <GPIO_Init+0x1a8>)
 8000ee4:	430b      	orrs	r3, r1
 8000ee6:	6093      	str	r3, [r2, #8]
			EXTI->FTSR1 |= (1 << pin);
 8000ee8:	4b28      	ldr	r3, [pc, #160]	@ (8000f8c <GPIO_Init+0x1a8>)
 8000eea:	68db      	ldr	r3, [r3, #12]
 8000eec:	2101      	movs	r1, #1
 8000eee:	69fa      	ldr	r2, [r7, #28]
 8000ef0:	fa01 f202 	lsl.w	r2, r1, r2
 8000ef4:	4611      	mov	r1, r2
 8000ef6:	4a25      	ldr	r2, [pc, #148]	@ (8000f8c <GPIO_Init+0x1a8>)
 8000ef8:	430b      	orrs	r3, r1
 8000efa:	60d3      	str	r3, [r2, #12]
		}

		/* -------- SYSCFG -------- */
		SYSCFG_CLK_ENABLE();
 8000efc:	4b24      	ldr	r3, [pc, #144]	@ (8000f90 <GPIO_Init+0x1ac>)
 8000efe:	6e1b      	ldr	r3, [r3, #96]	@ 0x60
 8000f00:	4a23      	ldr	r2, [pc, #140]	@ (8000f90 <GPIO_Init+0x1ac>)
 8000f02:	f043 0301 	orr.w	r3, r3, #1
 8000f06:	6613      	str	r3, [r2, #96]	@ 0x60

		uint8_t portcode = 0;
 8000f08:	2300      	movs	r3, #0
 8000f0a:	f887 3027 	strb.w	r3, [r7, #39]	@ 0x27

		if (pGPIOHandle->pGPIOx == GPIOA)
 8000f0e:	687b      	ldr	r3, [r7, #4]
 8000f10:	681b      	ldr	r3, [r3, #0]
 8000f12:	f1b3 4f90 	cmp.w	r3, #1207959552	@ 0x48000000
 8000f16:	d103      	bne.n	8000f20 <GPIO_Init+0x13c>
			portcode = 0;
 8000f18:	2300      	movs	r3, #0
 8000f1a:	f887 3027 	strb.w	r3, [r7, #39]	@ 0x27
 8000f1e:	e04d      	b.n	8000fbc <GPIO_Init+0x1d8>
		else if (pGPIOHandle->pGPIOx == GPIOB)
 8000f20:	687b      	ldr	r3, [r7, #4]
 8000f22:	681b      	ldr	r3, [r3, #0]
 8000f24:	4a1b      	ldr	r2, [pc, #108]	@ (8000f94 <GPIO_Init+0x1b0>)
 8000f26:	4293      	cmp	r3, r2
 8000f28:	d103      	bne.n	8000f32 <GPIO_Init+0x14e>
			portcode = 1;
 8000f2a:	2301      	movs	r3, #1
 8000f2c:	f887 3027 	strb.w	r3, [r7, #39]	@ 0x27
 8000f30:	e044      	b.n	8000fbc <GPIO_Init+0x1d8>
		else if (pGPIOHandle->pGPIOx == GPIOC)
 8000f32:	687b      	ldr	r3, [r7, #4]
 8000f34:	681b      	ldr	r3, [r3, #0]
 8000f36:	4a18      	ldr	r2, [pc, #96]	@ (8000f98 <GPIO_Init+0x1b4>)
 8000f38:	4293      	cmp	r3, r2
 8000f3a:	d103      	bne.n	8000f44 <GPIO_Init+0x160>
			portcode = 2;
 8000f3c:	2302      	movs	r3, #2
 8000f3e:	f887 3027 	strb.w	r3, [r7, #39]	@ 0x27
 8000f42:	e03b      	b.n	8000fbc <GPIO_Init+0x1d8>
		else if (pGPIOHandle->pGPIOx == GPIOD)
 8000f44:	687b      	ldr	r3, [r7, #4]
 8000f46:	681b      	ldr	r3, [r3, #0]
 8000f48:	4a14      	ldr	r2, [pc, #80]	@ (8000f9c <GPIO_Init+0x1b8>)
 8000f4a:	4293      	cmp	r3, r2
 8000f4c:	d103      	bne.n	8000f56 <GPIO_Init+0x172>
			portcode = 3;
 8000f4e:	2303      	movs	r3, #3
 8000f50:	f887 3027 	strb.w	r3, [r7, #39]	@ 0x27
 8000f54:	e032      	b.n	8000fbc <GPIO_Init+0x1d8>
		else if (pGPIOHandle->pGPIOx == GPIOE)
 8000f56:	687b      	ldr	r3, [r7, #4]
 8000f58:	681b      	ldr	r3, [r3, #0]
 8000f5a:	4a11      	ldr	r2, [pc, #68]	@ (8000fa0 <GPIO_Init+0x1bc>)
 8000f5c:	4293      	cmp	r3, r2
 8000f5e:	d103      	bne.n	8000f68 <GPIO_Init+0x184>
			portcode = 4;
 8000f60:	2304      	movs	r3, #4
 8000f62:	f887 3027 	strb.w	r3, [r7, #39]	@ 0x27
 8000f66:	e029      	b.n	8000fbc <GPIO_Init+0x1d8>
		else if (pGPIOHandle->pGPIOx == GPIOF)
 8000f68:	687b      	ldr	r3, [r7, #4]
 8000f6a:	681b      	ldr	r3, [r3, #0]
 8000f6c:	4a0d      	ldr	r2, [pc, #52]	@ (8000fa4 <GPIO_Init+0x1c0>)
 8000f6e:	4293      	cmp	r3, r2
 8000f70:	d103      	bne.n	8000f7a <GPIO_Init+0x196>
			portcode = 5;
 8000f72:	2305      	movs	r3, #5
 8000f74:	f887 3027 	strb.w	r3, [r7, #39]	@ 0x27
 8000f78:	e020      	b.n	8000fbc <GPIO_Init+0x1d8>
		else if (pGPIOHandle->pGPIOx == GPIOG)
 8000f7a:	687b      	ldr	r3, [r7, #4]
 8000f7c:	681b      	ldr	r3, [r3, #0]
 8000f7e:	4a0a      	ldr	r2, [pc, #40]	@ (8000fa8 <GPIO_Init+0x1c4>)
 8000f80:	4293      	cmp	r3, r2
 8000f82:	d113      	bne.n	8000fac <GPIO_Init+0x1c8>
			portcode = 6;
 8000f84:	2306      	movs	r3, #6
 8000f86:	f887 3027 	strb.w	r3, [r7, #39]	@ 0x27
 8000f8a:	e017      	b.n	8000fbc <GPIO_Init+0x1d8>
 8000f8c:	40010400 	.word	0x40010400
 8000f90:	40021000 	.word	0x40021000
 8000f94:	48000400 	.word	0x48000400
 8000f98:	48000800 	.word	0x48000800
 8000f9c:	48000c00 	.word	0x48000c00
 8000fa0:	48001000 	.word	0x48001000
 8000fa4:	48001400 	.word	0x48001400
 8000fa8:	48001800 	.word	0x48001800
		else if (pGPIOHandle->pGPIOx == GPIOH)
 8000fac:	687b      	ldr	r3, [r7, #4]
 8000fae:	681b      	ldr	r3, [r3, #0]
 8000fb0:	4a65      	ldr	r2, [pc, #404]	@ (8001148 <GPIO_Init+0x364>)
 8000fb2:	4293      	cmp	r3, r2
 8000fb4:	d102      	bne.n	8000fbc <GPIO_Init+0x1d8>
			portcode = 7;
 8000fb6:	2307      	movs	r3, #7
 8000fb8:	f887 3027 	strb.w	r3, [r7, #39]	@ 0x27

		uint8_t index = pin / 4;
 8000fbc:	69fb      	ldr	r3, [r7, #28]
 8000fbe:	089b      	lsrs	r3, r3, #2
 8000fc0:	76fb      	strb	r3, [r7, #27]
		uint8_t pos = pin % 4;
 8000fc2:	69fb      	ldr	r3, [r7, #28]
 8000fc4:	b2db      	uxtb	r3, r3
 8000fc6:	f003 0303 	and.w	r3, r3, #3
 8000fca:	76bb      	strb	r3, [r7, #26]

		SYSCFG->EXTICR[index] &= ~(0xF << (4 * pos));
 8000fcc:	4a5f      	ldr	r2, [pc, #380]	@ (800114c <GPIO_Init+0x368>)
 8000fce:	7efb      	ldrb	r3, [r7, #27]
 8000fd0:	3302      	adds	r3, #2
 8000fd2:	f852 2023 	ldr.w	r2, [r2, r3, lsl #2]
 8000fd6:	7ebb      	ldrb	r3, [r7, #26]
 8000fd8:	009b      	lsls	r3, r3, #2
 8000fda:	210f      	movs	r1, #15
 8000fdc:	fa01 f303 	lsl.w	r3, r1, r3
 8000fe0:	43db      	mvns	r3, r3
 8000fe2:	4618      	mov	r0, r3
 8000fe4:	4959      	ldr	r1, [pc, #356]	@ (800114c <GPIO_Init+0x368>)
 8000fe6:	7efb      	ldrb	r3, [r7, #27]
 8000fe8:	4002      	ands	r2, r0
 8000fea:	3302      	adds	r3, #2
 8000fec:	f841 2023 	str.w	r2, [r1, r3, lsl #2]
		SYSCFG->EXTICR[index] |= (portcode << (4 * pos));
 8000ff0:	4a56      	ldr	r2, [pc, #344]	@ (800114c <GPIO_Init+0x368>)
 8000ff2:	7efb      	ldrb	r3, [r7, #27]
 8000ff4:	3302      	adds	r3, #2
 8000ff6:	f852 2023 	ldr.w	r2, [r2, r3, lsl #2]
 8000ffa:	f897 1027 	ldrb.w	r1, [r7, #39]	@ 0x27
 8000ffe:	7ebb      	ldrb	r3, [r7, #26]
 8001000:	009b      	lsls	r3, r3, #2
 8001002:	fa01 f303 	lsl.w	r3, r1, r3
 8001006:	4618      	mov	r0, r3
 8001008:	4950      	ldr	r1, [pc, #320]	@ (800114c <GPIO_Init+0x368>)
 800100a:	7efb      	ldrb	r3, [r7, #27]
 800100c:	4302      	orrs	r2, r0
 800100e:	3302      	adds	r3, #2
 8001010:	f841 2023 	str.w	r2, [r1, r3, lsl #2]

		/* -------- Unmask -------- */
		EXTI->IMR1 |= (1 << pin);
 8001014:	4b4e      	ldr	r3, [pc, #312]	@ (8001150 <GPIO_Init+0x36c>)
 8001016:	681b      	ldr	r3, [r3, #0]
 8001018:	2101      	movs	r1, #1
 800101a:	69fa      	ldr	r2, [r7, #28]
 800101c:	fa01 f202 	lsl.w	r2, r1, r2
 8001020:	4611      	mov	r1, r2
 8001022:	4a4b      	ldr	r2, [pc, #300]	@ (8001150 <GPIO_Init+0x36c>)
 8001024:	430b      	orrs	r3, r1
 8001026:	6013      	str	r3, [r2, #0]
	}

	/* -------- SPEED -------- */
	temp = (pGPIOHandle->GPIO_PinConfig.GPIO_PinSpeed << (2 * pin));
 8001028:	687b      	ldr	r3, [r7, #4]
 800102a:	799b      	ldrb	r3, [r3, #6]
 800102c:	461a      	mov	r2, r3
 800102e:	69fb      	ldr	r3, [r7, #28]
 8001030:	005b      	lsls	r3, r3, #1
 8001032:	fa02 f303 	lsl.w	r3, r2, r3
 8001036:	623b      	str	r3, [r7, #32]
	pGPIOHandle->pGPIOx->OSPEEDR &= ~(0x3 << (2 * pin));
 8001038:	687b      	ldr	r3, [r7, #4]
 800103a:	681b      	ldr	r3, [r3, #0]
 800103c:	689a      	ldr	r2, [r3, #8]
 800103e:	69fb      	ldr	r3, [r7, #28]
 8001040:	005b      	lsls	r3, r3, #1
 8001042:	2103      	movs	r1, #3
 8001044:	fa01 f303 	lsl.w	r3, r1, r3
 8001048:	43db      	mvns	r3, r3
 800104a:	4619      	mov	r1, r3
 800104c:	687b      	ldr	r3, [r7, #4]
 800104e:	681b      	ldr	r3, [r3, #0]
 8001050:	400a      	ands	r2, r1
 8001052:	609a      	str	r2, [r3, #8]
	pGPIOHandle->pGPIOx->OSPEEDR |= temp;
 8001054:	687b      	ldr	r3, [r7, #4]
 8001056:	681b      	ldr	r3, [r3, #0]
 8001058:	6899      	ldr	r1, [r3, #8]
 800105a:	687b      	ldr	r3, [r7, #4]
 800105c:	681b      	ldr	r3, [r3, #0]
 800105e:	6a3a      	ldr	r2, [r7, #32]
 8001060:	430a      	orrs	r2, r1
 8001062:	609a      	str	r2, [r3, #8]

	/* -------- PUPD -------- */
	temp = (pGPIOHandle->GPIO_PinConfig.GPIO_PinPuPdControl << (2 * pin));
 8001064:	687b      	ldr	r3, [r7, #4]
 8001066:	79db      	ldrb	r3, [r3, #7]
 8001068:	461a      	mov	r2, r3
 800106a:	69fb      	ldr	r3, [r7, #28]
 800106c:	005b      	lsls	r3, r3, #1
 800106e:	fa02 f303 	lsl.w	r3, r2, r3
 8001072:	623b      	str	r3, [r7, #32]
	pGPIOHandle->pGPIOx->PUPDR &= ~(0x3 << (2 * pin));
 8001074:	687b      	ldr	r3, [r7, #4]
 8001076:	681b      	ldr	r3, [r3, #0]
 8001078:	68da      	ldr	r2, [r3, #12]
 800107a:	69fb      	ldr	r3, [r7, #28]
 800107c:	005b      	lsls	r3, r3, #1
 800107e:	2103      	movs	r1, #3
 8001080:	fa01 f303 	lsl.w	r3, r1, r3
 8001084:	43db      	mvns	r3, r3
 8001086:	4619      	mov	r1, r3
 8001088:	687b      	ldr	r3, [r7, #4]
 800108a:	681b      	ldr	r3, [r3, #0]
 800108c:	400a      	ands	r2, r1
 800108e:	60da      	str	r2, [r3, #12]
	pGPIOHandle->pGPIOx->PUPDR |= temp;
 8001090:	687b      	ldr	r3, [r7, #4]
 8001092:	681b      	ldr	r3, [r3, #0]
 8001094:	68d9      	ldr	r1, [r3, #12]
 8001096:	687b      	ldr	r3, [r7, #4]
 8001098:	681b      	ldr	r3, [r3, #0]
 800109a:	6a3a      	ldr	r2, [r7, #32]
 800109c:	430a      	orrs	r2, r1
 800109e:	60da      	str	r2, [r3, #12]

	/* -------- OUTPUT TYPE -------- */
	temp = (pGPIOHandle->GPIO_PinConfig.GPIO_PinOPType << pin);
 80010a0:	687b      	ldr	r3, [r7, #4]
 80010a2:	7a1b      	ldrb	r3, [r3, #8]
 80010a4:	461a      	mov	r2, r3
 80010a6:	69fb      	ldr	r3, [r7, #28]
 80010a8:	fa02 f303 	lsl.w	r3, r2, r3
 80010ac:	623b      	str	r3, [r7, #32]
	pGPIOHandle->pGPIOx->OTYPER &= ~(1 << pin);
 80010ae:	687b      	ldr	r3, [r7, #4]
 80010b0:	681b      	ldr	r3, [r3, #0]
 80010b2:	685a      	ldr	r2, [r3, #4]
 80010b4:	2101      	movs	r1, #1
 80010b6:	69fb      	ldr	r3, [r7, #28]
 80010b8:	fa01 f303 	lsl.w	r3, r1, r3
 80010bc:	43db      	mvns	r3, r3
 80010be:	4619      	mov	r1, r3
 80010c0:	687b      	ldr	r3, [r7, #4]
 80010c2:	681b      	ldr	r3, [r3, #0]
 80010c4:	400a      	ands	r2, r1
 80010c6:	605a      	str	r2, [r3, #4]
	pGPIOHandle->pGPIOx->OTYPER |= temp;
 80010c8:	687b      	ldr	r3, [r7, #4]
 80010ca:	681b      	ldr	r3, [r3, #0]
 80010cc:	6859      	ldr	r1, [r3, #4]
 80010ce:	687b      	ldr	r3, [r7, #4]
 80010d0:	681b      	ldr	r3, [r3, #0]
 80010d2:	6a3a      	ldr	r2, [r7, #32]
 80010d4:	430a      	orrs	r2, r1
 80010d6:	605a      	str	r2, [r3, #4]

	/* -------- ALTERNATE FUNCTION -------- */
	if (pGPIOHandle->GPIO_PinConfig.GPIO_PinMode == GPIO_MODE_ALTFN) {
 80010d8:	687b      	ldr	r3, [r7, #4]
 80010da:	795b      	ldrb	r3, [r3, #5]
 80010dc:	2b02      	cmp	r3, #2
 80010de:	d12e      	bne.n	800113e <GPIO_Init+0x35a>
		uint32_t index = pin / 8;
 80010e0:	69fb      	ldr	r3, [r7, #28]
 80010e2:	08db      	lsrs	r3, r3, #3
 80010e4:	617b      	str	r3, [r7, #20]
		uint32_t pos = pin % 8;
 80010e6:	69fb      	ldr	r3, [r7, #28]
 80010e8:	f003 0307 	and.w	r3, r3, #7
 80010ec:	613b      	str	r3, [r7, #16]
		uint32_t af = pGPIOHandle->GPIO_PinConfig.GPIO_PinAltFunMode;
 80010ee:	687b      	ldr	r3, [r7, #4]
 80010f0:	7a5b      	ldrb	r3, [r3, #9]
 80010f2:	60fb      	str	r3, [r7, #12]

		pGPIOHandle->pGPIOx->AFR[index] &= ~(0xF << (4 * pos));
 80010f4:	687b      	ldr	r3, [r7, #4]
 80010f6:	681b      	ldr	r3, [r3, #0]
 80010f8:	697a      	ldr	r2, [r7, #20]
 80010fa:	3208      	adds	r2, #8
 80010fc:	f853 2022 	ldr.w	r2, [r3, r2, lsl #2]
 8001100:	693b      	ldr	r3, [r7, #16]
 8001102:	009b      	lsls	r3, r3, #2
 8001104:	210f      	movs	r1, #15
 8001106:	fa01 f303 	lsl.w	r3, r1, r3
 800110a:	43db      	mvns	r3, r3
 800110c:	4619      	mov	r1, r3
 800110e:	687b      	ldr	r3, [r7, #4]
 8001110:	681b      	ldr	r3, [r3, #0]
 8001112:	4011      	ands	r1, r2
 8001114:	697a      	ldr	r2, [r7, #20]
 8001116:	3208      	adds	r2, #8
 8001118:	f843 1022 	str.w	r1, [r3, r2, lsl #2]
		pGPIOHandle->pGPIOx->AFR[index] |= (af << (4 * pos));
 800111c:	687b      	ldr	r3, [r7, #4]
 800111e:	681b      	ldr	r3, [r3, #0]
 8001120:	697a      	ldr	r2, [r7, #20]
 8001122:	3208      	adds	r2, #8
 8001124:	f853 1022 	ldr.w	r1, [r3, r2, lsl #2]
 8001128:	693b      	ldr	r3, [r7, #16]
 800112a:	009b      	lsls	r3, r3, #2
 800112c:	68fa      	ldr	r2, [r7, #12]
 800112e:	409a      	lsls	r2, r3
 8001130:	687b      	ldr	r3, [r7, #4]
 8001132:	681b      	ldr	r3, [r3, #0]
 8001134:	4311      	orrs	r1, r2
 8001136:	697a      	ldr	r2, [r7, #20]
 8001138:	3208      	adds	r2, #8
 800113a:	f843 1022 	str.w	r1, [r3, r2, lsl #2]
	}
}
 800113e:	bf00      	nop
 8001140:	3728      	adds	r7, #40	@ 0x28
 8001142:	46bd      	mov	sp, r7
 8001144:	bd80      	pop	{r7, pc}
 8001146:	bf00      	nop
 8001148:	48001c00 	.word	0x48001c00
 800114c:	40010000 	.word	0x40010000
 8001150:	40010400 	.word	0x40010400

08001154 <GPIO_ReadFromInputPin>:
 *
 * @return  uint8_t    Pin state (0 or 1)
 *
 * @note    Reads IDR register
 */
uint8_t GPIO_ReadFromInputPin(GPIO_TypeDef *pGPIOx, uint8_t PinNumber) {
 8001154:	b480      	push	{r7}
 8001156:	b083      	sub	sp, #12
 8001158:	af00      	add	r7, sp, #0
 800115a:	6078      	str	r0, [r7, #4]
 800115c:	460b      	mov	r3, r1
 800115e:	70fb      	strb	r3, [r7, #3]
	return (uint8_t) ((pGPIOx->IDR >> PinNumber) & 0x1);
 8001160:	687b      	ldr	r3, [r7, #4]
 8001162:	691a      	ldr	r2, [r3, #16]
 8001164:	78fb      	ldrb	r3, [r7, #3]
 8001166:	fa22 f303 	lsr.w	r3, r2, r3
 800116a:	b2db      	uxtb	r3, r3
 800116c:	f003 0301 	and.w	r3, r3, #1
 8001170:	b2db      	uxtb	r3, r3
}
 8001172:	4618      	mov	r0, r3
 8001174:	370c      	adds	r7, #12
 8001176:	46bd      	mov	sp, r7
 8001178:	f85d 7b04 	ldr.w	r7, [sp], #4
 800117c:	4770      	bx	lr

0800117e <GPIO_WriteToOutputPin>:
 * @return  None
 *
 * @note    Uses BSRR register for atomic operation
 */
void GPIO_WriteToOutputPin(GPIO_TypeDef *pGPIOx, uint8_t PinNumber,
		uint8_t Value) {
 800117e:	b480      	push	{r7}
 8001180:	b083      	sub	sp, #12
 8001182:	af00      	add	r7, sp, #0
 8001184:	6078      	str	r0, [r7, #4]
 8001186:	460b      	mov	r3, r1
 8001188:	70fb      	strb	r3, [r7, #3]
 800118a:	4613      	mov	r3, r2
 800118c:	70bb      	strb	r3, [r7, #2]
	if (Value == GPIO_PIN_SET)
 800118e:	78bb      	ldrb	r3, [r7, #2]
 8001190:	2b01      	cmp	r3, #1
 8001192:	d107      	bne.n	80011a4 <GPIO_WriteToOutputPin+0x26>
		pGPIOx->BSRR = (1 << PinNumber);
 8001194:	78fb      	ldrb	r3, [r7, #3]
 8001196:	2201      	movs	r2, #1
 8001198:	fa02 f303 	lsl.w	r3, r2, r3
 800119c:	461a      	mov	r2, r3
 800119e:	687b      	ldr	r3, [r7, #4]
 80011a0:	619a      	str	r2, [r3, #24]
	else
		pGPIOx->BSRR = (1 << (PinNumber + 16));
}
 80011a2:	e007      	b.n	80011b4 <GPIO_WriteToOutputPin+0x36>
		pGPIOx->BSRR = (1 << (PinNumber + 16));
 80011a4:	78fb      	ldrb	r3, [r7, #3]
 80011a6:	3310      	adds	r3, #16
 80011a8:	2201      	movs	r2, #1
 80011aa:	fa02 f303 	lsl.w	r3, r2, r3
 80011ae:	461a      	mov	r2, r3
 80011b0:	687b      	ldr	r3, [r7, #4]
 80011b2:	619a      	str	r2, [r3, #24]
}
 80011b4:	bf00      	nop
 80011b6:	370c      	adds	r7, #12
 80011b8:	46bd      	mov	sp, r7
 80011ba:	f85d 7b04 	ldr.w	r7, [sp], #4
 80011be:	4770      	bx	lr

080011c0 <GPIO_IRQConfig>:
 *
 * @return  None
 *
 * @note    Configures NVIC registers
 */
void GPIO_IRQConfig(uint8_t IRQNumber, uint8_t IRQPriority, uint8_t En_or_Dis) {
 80011c0:	b480      	push	{r7}
 80011c2:	b085      	sub	sp, #20
 80011c4:	af00      	add	r7, sp, #0
 80011c6:	4603      	mov	r3, r0
 80011c8:	71fb      	strb	r3, [r7, #7]
 80011ca:	460b      	mov	r3, r1
 80011cc:	71bb      	strb	r3, [r7, #6]
 80011ce:	4613      	mov	r3, r2
 80011d0:	717b      	strb	r3, [r7, #5]
	if (En_or_Dis) {
 80011d2:	797b      	ldrb	r3, [r7, #5]
 80011d4:	2b00      	cmp	r3, #0
 80011d6:	d02d      	beq.n	8001234 <GPIO_IRQConfig+0x74>
		if (IRQNumber <= 31)
 80011d8:	79fb      	ldrb	r3, [r7, #7]
 80011da:	2b1f      	cmp	r3, #31
 80011dc:	d80a      	bhi.n	80011f4 <GPIO_IRQConfig+0x34>
			NVIC_ISER0 |= (1 << IRQNumber);
 80011de:	4b48      	ldr	r3, [pc, #288]	@ (8001300 <GPIO_IRQConfig+0x140>)
 80011e0:	681b      	ldr	r3, [r3, #0]
 80011e2:	79fa      	ldrb	r2, [r7, #7]
 80011e4:	2101      	movs	r1, #1
 80011e6:	fa01 f202 	lsl.w	r2, r1, r2
 80011ea:	4611      	mov	r1, r2
 80011ec:	4a44      	ldr	r2, [pc, #272]	@ (8001300 <GPIO_IRQConfig+0x140>)
 80011ee:	430b      	orrs	r3, r1
 80011f0:	6013      	str	r3, [r2, #0]
 80011f2:	e04c      	b.n	800128e <GPIO_IRQConfig+0xce>
		else if (IRQNumber < 64)
 80011f4:	79fb      	ldrb	r3, [r7, #7]
 80011f6:	2b3f      	cmp	r3, #63	@ 0x3f
 80011f8:	d80c      	bhi.n	8001214 <GPIO_IRQConfig+0x54>
			NVIC_ISER1 |= (1 << (IRQNumber % 32));
 80011fa:	4b42      	ldr	r3, [pc, #264]	@ (8001304 <GPIO_IRQConfig+0x144>)
 80011fc:	681b      	ldr	r3, [r3, #0]
 80011fe:	79fa      	ldrb	r2, [r7, #7]
 8001200:	f002 021f 	and.w	r2, r2, #31
 8001204:	2101      	movs	r1, #1
 8001206:	fa01 f202 	lsl.w	r2, r1, r2
 800120a:	4611      	mov	r1, r2
 800120c:	4a3d      	ldr	r2, [pc, #244]	@ (8001304 <GPIO_IRQConfig+0x144>)
 800120e:	430b      	orrs	r3, r1
 8001210:	6013      	str	r3, [r2, #0]
 8001212:	e03c      	b.n	800128e <GPIO_IRQConfig+0xce>
		else if (IRQNumber < 96)
 8001214:	79fb      	ldrb	r3, [r7, #7]
 8001216:	2b5f      	cmp	r3, #95	@ 0x5f
 8001218:	d839      	bhi.n	800128e <GPIO_IRQConfig+0xce>
			NVIC_ISER2 |= (1 << (IRQNumber % 32));
 800121a:	4b3b      	ldr	r3, [pc, #236]	@ (8001308 <GPIO_IRQConfig+0x148>)
 800121c:	681b      	ldr	r3, [r3, #0]
 800121e:	79fa      	ldrb	r2, [r7, #7]
 8001220:	f002 021f 	and.w	r2, r2, #31
 8001224:	2101      	movs	r1, #1
 8001226:	fa01 f202 	lsl.w	r2, r1, r2
 800122a:	4611      	mov	r1, r2
 800122c:	4a36      	ldr	r2, [pc, #216]	@ (8001308 <GPIO_IRQConfig+0x148>)
 800122e:	430b      	orrs	r3, r1
 8001230:	6013      	str	r3, [r2, #0]
 8001232:	e02c      	b.n	800128e <GPIO_IRQConfig+0xce>

	} else {
		if (IRQNumber <= 31)
 8001234:	79fb      	ldrb	r3, [r7, #7]
 8001236:	2b1f      	cmp	r3, #31
 8001238:	d80a      	bhi.n	8001250 <GPIO_IRQConfig+0x90>
			NVIC_ICER0 |= (1 << IRQNumber);
 800123a:	4b34      	ldr	r3, [pc, #208]	@ (800130c <GPIO_IRQConfig+0x14c>)
 800123c:	681b      	ldr	r3, [r3, #0]
 800123e:	79fa      	ldrb	r2, [r7, #7]
 8001240:	2101      	movs	r1, #1
 8001242:	fa01 f202 	lsl.w	r2, r1, r2
 8001246:	4611      	mov	r1, r2
 8001248:	4a30      	ldr	r2, [pc, #192]	@ (800130c <GPIO_IRQConfig+0x14c>)
 800124a:	430b      	orrs	r3, r1
 800124c:	6013      	str	r3, [r2, #0]
 800124e:	e01e      	b.n	800128e <GPIO_IRQConfig+0xce>
		else if (IRQNumber < 64)
 8001250:	79fb      	ldrb	r3, [r7, #7]
 8001252:	2b3f      	cmp	r3, #63	@ 0x3f
 8001254:	d80c      	bhi.n	8001270 <GPIO_IRQConfig+0xb0>
			NVIC_ICER1 |= (1 << (IRQNumber % 32));
 8001256:	4b2e      	ldr	r3, [pc, #184]	@ (8001310 <GPIO_IRQConfig+0x150>)
 8001258:	681b      	ldr	r3, [r3, #0]
 800125a:	79fa      	ldrb	r2, [r7, #7]
 800125c:	f002 021f 	and.w	r2, r2, #31
 8001260:	2101      	movs	r1, #1
 8001262:	fa01 f202 	lsl.w	r2, r1, r2
 8001266:	4611      	mov	r1, r2
 8001268:	4a29      	ldr	r2, [pc, #164]	@ (8001310 <GPIO_IRQConfig+0x150>)
 800126a:	430b      	orrs	r3, r1
 800126c:	6013      	str	r3, [r2, #0]
 800126e:	e00e      	b.n	800128e <GPIO_IRQConfig+0xce>
		else if (IRQNumber < 96)
 8001270:	79fb      	ldrb	r3, [r7, #7]
 8001272:	2b5f      	cmp	r3, #95	@ 0x5f
 8001274:	d80b      	bhi.n	800128e <GPIO_IRQConfig+0xce>
			NVIC_ICER2 |= (1 << (IRQNumber % 32));
 8001276:	4b27      	ldr	r3, [pc, #156]	@ (8001314 <GPIO_IRQConfig+0x154>)
 8001278:	681b      	ldr	r3, [r3, #0]
 800127a:	79fa      	ldrb	r2, [r7, #7]
 800127c:	f002 021f 	and.w	r2, r2, #31
 8001280:	2101      	movs	r1, #1
 8001282:	fa01 f202 	lsl.w	r2, r1, r2
 8001286:	4611      	mov	r1, r2
 8001288:	4a22      	ldr	r2, [pc, #136]	@ (8001314 <GPIO_IRQConfig+0x154>)
 800128a:	430b      	orrs	r3, r1
 800128c:	6013      	str	r3, [r2, #0]
	}

	/* Set priority */
	uint8_t iprx = IRQNumber / 4;
 800128e:	79fb      	ldrb	r3, [r7, #7]
 8001290:	089b      	lsrs	r3, r3, #2
 8001292:	73fb      	strb	r3, [r7, #15]
	uint8_t section = IRQNumber % 4;
 8001294:	79fb      	ldrb	r3, [r7, #7]
 8001296:	f003 0303 	and.w	r3, r3, #3
 800129a:	73bb      	strb	r3, [r7, #14]

	NVIC_IPR[iprx] &= ~(0xFF << (8 * section));     // clear
 800129c:	7bfb      	ldrb	r3, [r7, #15]
 800129e:	009b      	lsls	r3, r3, #2
 80012a0:	f103 4360 	add.w	r3, r3, #3758096384	@ 0xe0000000
 80012a4:	f503 4364 	add.w	r3, r3, #58368	@ 0xe400
 80012a8:	681a      	ldr	r2, [r3, #0]
 80012aa:	7bbb      	ldrb	r3, [r7, #14]
 80012ac:	00db      	lsls	r3, r3, #3
 80012ae:	21ff      	movs	r1, #255	@ 0xff
 80012b0:	fa01 f303 	lsl.w	r3, r1, r3
 80012b4:	43db      	mvns	r3, r3
 80012b6:	4619      	mov	r1, r3
 80012b8:	7bfb      	ldrb	r3, [r7, #15]
 80012ba:	009b      	lsls	r3, r3, #2
 80012bc:	f103 4360 	add.w	r3, r3, #3758096384	@ 0xe0000000
 80012c0:	f503 4364 	add.w	r3, r3, #58368	@ 0xe400
 80012c4:	400a      	ands	r2, r1
 80012c6:	601a      	str	r2, [r3, #0]
	NVIC_IPR[iprx] |= (IRQPriority << (8 * section));
 80012c8:	7bfb      	ldrb	r3, [r7, #15]
 80012ca:	009b      	lsls	r3, r3, #2
 80012cc:	f103 4360 	add.w	r3, r3, #3758096384	@ 0xe0000000
 80012d0:	f503 4364 	add.w	r3, r3, #58368	@ 0xe400
 80012d4:	681a      	ldr	r2, [r3, #0]
 80012d6:	79b9      	ldrb	r1, [r7, #6]
 80012d8:	7bbb      	ldrb	r3, [r7, #14]
 80012da:	00db      	lsls	r3, r3, #3
 80012dc:	fa01 f303 	lsl.w	r3, r1, r3
 80012e0:	4619      	mov	r1, r3
 80012e2:	7bfb      	ldrb	r3, [r7, #15]
 80012e4:	009b      	lsls	r3, r3, #2
 80012e6:	f103 4360 	add.w	r3, r3, #3758096384	@ 0xe0000000
 80012ea:	f503 4364 	add.w	r3, r3, #58368	@ 0xe400
 80012ee:	430a      	orrs	r2, r1
 80012f0:	601a      	str	r2, [r3, #0]
}
 80012f2:	bf00      	nop
 80012f4:	3714      	adds	r7, #20
 80012f6:	46bd      	mov	sp, r7
 80012f8:	f85d 7b04 	ldr.w	r7, [sp], #4
 80012fc:	4770      	bx	lr
 80012fe:	bf00      	nop
 8001300:	e000e100 	.word	0xe000e100
 8001304:	e000e104 	.word	0xe000e104
 8001308:	e000e108 	.word	0xe000e108
 800130c:	e000e180 	.word	0xe000e180
 8001310:	e000e184 	.word	0xe000e184
 8001314:	e000e188 	.word	0xe000e188

08001318 <GPIO_IRQHandling>:
 *
 * @return  None
 *
 * @note    Clears EXTI pending register
 */
void GPIO_IRQHandling(uint8_t PinNumber) {
 8001318:	b480      	push	{r7}
 800131a:	b083      	sub	sp, #12
 800131c:	af00      	add	r7, sp, #0
 800131e:	4603      	mov	r3, r0
 8001320:	71fb      	strb	r3, [r7, #7]
	if (EXTI->PR1 & (1 << PinNumber)) {
 8001322:	4b0c      	ldr	r3, [pc, #48]	@ (8001354 <GPIO_IRQHandling+0x3c>)
 8001324:	695b      	ldr	r3, [r3, #20]
 8001326:	79fa      	ldrb	r2, [r7, #7]
 8001328:	2101      	movs	r1, #1
 800132a:	fa01 f202 	lsl.w	r2, r1, r2
 800132e:	4013      	ands	r3, r2
 8001330:	2b00      	cmp	r3, #0
 8001332:	d009      	beq.n	8001348 <GPIO_IRQHandling+0x30>
		EXTI->PR1 |= (1 << PinNumber); // clear pending
 8001334:	4b07      	ldr	r3, [pc, #28]	@ (8001354 <GPIO_IRQHandling+0x3c>)
 8001336:	695b      	ldr	r3, [r3, #20]
 8001338:	79fa      	ldrb	r2, [r7, #7]
 800133a:	2101      	movs	r1, #1
 800133c:	fa01 f202 	lsl.w	r2, r1, r2
 8001340:	4611      	mov	r1, r2
 8001342:	4a04      	ldr	r2, [pc, #16]	@ (8001354 <GPIO_IRQHandling+0x3c>)
 8001344:	430b      	orrs	r3, r1
 8001346:	6153      	str	r3, [r2, #20]
	}
}
 8001348:	bf00      	nop
 800134a:	370c      	adds	r7, #12
 800134c:	46bd      	mov	sp, r7
 800134e:	f85d 7b04 	ldr.w	r7, [sp], #4
 8001352:	4770      	bx	lr
 8001354:	40010400 	.word	0x40010400

08001358 <SPI_PeriClockControl>:

#include "stm32l476xx_spi.h"

/* ================= CLOCK ================= */

void SPI_PeriClockControl(SPI_RegDef_t *pSPIx, uint8_t EnOrDi) {
 8001358:	b480      	push	{r7}
 800135a:	b083      	sub	sp, #12
 800135c:	af00      	add	r7, sp, #0
 800135e:	6078      	str	r0, [r7, #4]
 8001360:	460b      	mov	r3, r1
 8001362:	70fb      	strb	r3, [r7, #3]
	if (EnOrDi == ENABLE) {
 8001364:	78fb      	ldrb	r3, [r7, #3]
 8001366:	2b01      	cmp	r3, #1
 8001368:	d120      	bne.n	80013ac <SPI_PeriClockControl+0x54>
		if (pSPIx == SPI1)
 800136a:	687b      	ldr	r3, [r7, #4]
 800136c:	4a22      	ldr	r2, [pc, #136]	@ (80013f8 <SPI_PeriClockControl+0xa0>)
 800136e:	4293      	cmp	r3, r2
 8001370:	d106      	bne.n	8001380 <SPI_PeriClockControl+0x28>
			SPI1_CLK_ENABLE();
 8001372:	4b22      	ldr	r3, [pc, #136]	@ (80013fc <SPI_PeriClockControl+0xa4>)
 8001374:	6e1b      	ldr	r3, [r3, #96]	@ 0x60
 8001376:	4a21      	ldr	r2, [pc, #132]	@ (80013fc <SPI_PeriClockControl+0xa4>)
 8001378:	f443 5380 	orr.w	r3, r3, #4096	@ 0x1000
 800137c:	6613      	str	r3, [r2, #96]	@ 0x60
		else if (pSPIx == SPI2)
			SPI2_CLK_DISABLE();
		else if (pSPIx == SPI3)
			SPI3_CLK_DISABLE();
	}
}
 800137e:	e035      	b.n	80013ec <SPI_PeriClockControl+0x94>
		else if (pSPIx == SPI2)
 8001380:	687b      	ldr	r3, [r7, #4]
 8001382:	4a1f      	ldr	r2, [pc, #124]	@ (8001400 <SPI_PeriClockControl+0xa8>)
 8001384:	4293      	cmp	r3, r2
 8001386:	d106      	bne.n	8001396 <SPI_PeriClockControl+0x3e>
			SPI2_CLK_ENABLE();
 8001388:	4b1c      	ldr	r3, [pc, #112]	@ (80013fc <SPI_PeriClockControl+0xa4>)
 800138a:	6d9b      	ldr	r3, [r3, #88]	@ 0x58
 800138c:	4a1b      	ldr	r2, [pc, #108]	@ (80013fc <SPI_PeriClockControl+0xa4>)
 800138e:	f443 4380 	orr.w	r3, r3, #16384	@ 0x4000
 8001392:	6593      	str	r3, [r2, #88]	@ 0x58
}
 8001394:	e02a      	b.n	80013ec <SPI_PeriClockControl+0x94>
		else if (pSPIx == SPI3)
 8001396:	687b      	ldr	r3, [r7, #4]
 8001398:	4a1a      	ldr	r2, [pc, #104]	@ (8001404 <SPI_PeriClockControl+0xac>)
 800139a:	4293      	cmp	r3, r2
 800139c:	d126      	bne.n	80013ec <SPI_PeriClockControl+0x94>
			SPI3_CLK_ENABLE();
 800139e:	4b17      	ldr	r3, [pc, #92]	@ (80013fc <SPI_PeriClockControl+0xa4>)
 80013a0:	6d9b      	ldr	r3, [r3, #88]	@ 0x58
 80013a2:	4a16      	ldr	r2, [pc, #88]	@ (80013fc <SPI_PeriClockControl+0xa4>)
 80013a4:	f443 4300 	orr.w	r3, r3, #32768	@ 0x8000
 80013a8:	6593      	str	r3, [r2, #88]	@ 0x58
}
 80013aa:	e01f      	b.n	80013ec <SPI_PeriClockControl+0x94>
		if (pSPIx == SPI1)
 80013ac:	687b      	ldr	r3, [r7, #4]
 80013ae:	4a12      	ldr	r2, [pc, #72]	@ (80013f8 <SPI_PeriClockControl+0xa0>)
 80013b0:	4293      	cmp	r3, r2
 80013b2:	d106      	bne.n	80013c2 <SPI_PeriClockControl+0x6a>
			SPI1_CLK_DISABLE();
 80013b4:	4b11      	ldr	r3, [pc, #68]	@ (80013fc <SPI_PeriClockControl+0xa4>)
 80013b6:	6e1b      	ldr	r3, [r3, #96]	@ 0x60
 80013b8:	4a10      	ldr	r2, [pc, #64]	@ (80013fc <SPI_PeriClockControl+0xa4>)
 80013ba:	f423 5380 	bic.w	r3, r3, #4096	@ 0x1000
 80013be:	6613      	str	r3, [r2, #96]	@ 0x60
}
 80013c0:	e014      	b.n	80013ec <SPI_PeriClockControl+0x94>
		else if (pSPIx == SPI2)
 80013c2:	687b      	ldr	r3, [r7, #4]
 80013c4:	4a0e      	ldr	r2, [pc, #56]	@ (8001400 <SPI_PeriClockControl+0xa8>)
 80013c6:	4293      	cmp	r3, r2
 80013c8:	d106      	bne.n	80013d8 <SPI_PeriClockControl+0x80>
			SPI2_CLK_DISABLE();
 80013ca:	4b0c      	ldr	r3, [pc, #48]	@ (80013fc <SPI_PeriClockControl+0xa4>)
 80013cc:	6d9b      	ldr	r3, [r3, #88]	@ 0x58
 80013ce:	4a0b      	ldr	r2, [pc, #44]	@ (80013fc <SPI_PeriClockControl+0xa4>)
 80013d0:	f423 4380 	bic.w	r3, r3, #16384	@ 0x4000
 80013d4:	6593      	str	r3, [r2, #88]	@ 0x58
}
 80013d6:	e009      	b.n	80013ec <SPI_PeriClockControl+0x94>
		else if (pSPIx == SPI3)
 80013d8:	687b      	ldr	r3, [r7, #4]
 80013da:	4a0a      	ldr	r2, [pc, #40]	@ (8001404 <SPI_PeriClockControl+0xac>)
 80013dc:	4293      	cmp	r3, r2
 80013de:	d105      	bne.n	80013ec <SPI_PeriClockControl+0x94>
			SPI3_CLK_DISABLE();
 80013e0:	4b06      	ldr	r3, [pc, #24]	@ (80013fc <SPI_PeriClockControl+0xa4>)
 80013e2:	6d9b      	ldr	r3, [r3, #88]	@ 0x58
 80013e4:	4a05      	ldr	r2, [pc, #20]	@ (80013fc <SPI_PeriClockControl+0xa4>)
 80013e6:	f423 4300 	bic.w	r3, r3, #32768	@ 0x8000
 80013ea:	6593      	str	r3, [r2, #88]	@ 0x58
}
 80013ec:	bf00      	nop
 80013ee:	370c      	adds	r7, #12
 80013f0:	46bd      	mov	sp, r7
 80013f2:	f85d 7b04 	ldr.w	r7, [sp], #4
 80013f6:	4770      	bx	lr
 80013f8:	40013000 	.word	0x40013000
 80013fc:	40021000 	.word	0x40021000
 8001400:	40003800 	.word	0x40003800
 8001404:	40003c00 	.word	0x40003c00

08001408 <SPI_Init>:

/* ================= INIT ================= */

void SPI_Init(SPI_Handle_t *pSPIHandle) {
 8001408:	b580      	push	{r7, lr}
 800140a:	b084      	sub	sp, #16
 800140c:	af00      	add	r7, sp, #0
 800140e:	6078      	str	r0, [r7, #4]
	uint32_t temp = 0;
 8001410:	2300      	movs	r3, #0
 8001412:	60fb      	str	r3, [r7, #12]

	SPI_PeriClockControl(pSPIHandle->pSPIx, ENABLE);
 8001414:	687b      	ldr	r3, [r7, #4]
 8001416:	681b      	ldr	r3, [r3, #0]
 8001418:	2101      	movs	r1, #1
 800141a:	4618      	mov	r0, r3
 800141c:	f7ff ff9c 	bl	8001358 <SPI_PeriClockControl>

	/* -------- Device Mode -------- */
	temp |= (pSPIHandle->SPI_Config.DeviceMode << SPI_CR1_MSTR);
 8001420:	687b      	ldr	r3, [r7, #4]
 8001422:	791b      	ldrb	r3, [r3, #4]
 8001424:	009b      	lsls	r3, r3, #2
 8001426:	68fa      	ldr	r2, [r7, #12]
 8001428:	4313      	orrs	r3, r2
 800142a:	60fb      	str	r3, [r7, #12]

	/* -------- Bus Config -------- */
	if (pSPIHandle->SPI_Config.BusConfig == SPI_BUS_CONFIG_FD) {
 800142c:	687b      	ldr	r3, [r7, #4]
 800142e:	795b      	ldrb	r3, [r3, #5]
 8001430:	2b01      	cmp	r3, #1
 8001432:	d104      	bne.n	800143e <SPI_Init+0x36>
		temp &= ~(1 << SPI_CR1_BIDIMODE);   // full
 8001434:	68fb      	ldr	r3, [r7, #12]
 8001436:	f423 4300 	bic.w	r3, r3, #32768	@ 0x8000
 800143a:	60fb      	str	r3, [r7, #12]
 800143c:	e014      	b.n	8001468 <SPI_Init+0x60>
	} else if (pSPIHandle->SPI_Config.BusConfig == SPI_BUS_CONFIG_HD) {
 800143e:	687b      	ldr	r3, [r7, #4]
 8001440:	795b      	ldrb	r3, [r3, #5]
 8001442:	2b02      	cmp	r3, #2
 8001444:	d104      	bne.n	8001450 <SPI_Init+0x48>
		temp |= (1 << SPI_CR1_BIDIMODE);    // half
 8001446:	68fb      	ldr	r3, [r7, #12]
 8001448:	f443 4300 	orr.w	r3, r3, #32768	@ 0x8000
 800144c:	60fb      	str	r3, [r7, #12]
 800144e:	e00b      	b.n	8001468 <SPI_Init+0x60>
	} else if (pSPIHandle->SPI_Config.BusConfig == SPI_BUS_CONFIG_SIMPLEX_RXONLY) {
 8001450:	687b      	ldr	r3, [r7, #4]
 8001452:	795b      	ldrb	r3, [r3, #5]
 8001454:	2b03      	cmp	r3, #3
 8001456:	d107      	bne.n	8001468 <SPI_Init+0x60>
		temp &= ~(1 << SPI_CR1_BIDIMODE);   // 2-line
 8001458:	68fb      	ldr	r3, [r7, #12]
 800145a:	f423 4300 	bic.w	r3, r3, #32768	@ 0x8000
 800145e:	60fb      	str	r3, [r7, #12]
		temp |= (1 << SPI_CR1_RXONLY);     // RX only
 8001460:	68fb      	ldr	r3, [r7, #12]
 8001462:	f443 6380 	orr.w	r3, r3, #1024	@ 0x400
 8001466:	60fb      	str	r3, [r7, #12]
	}

	/* -------- Baud Rate -------- */
	temp |= (pSPIHandle->SPI_Config.SclkSpeed << SPI_CR1_BR);
 8001468:	687b      	ldr	r3, [r7, #4]
 800146a:	799b      	ldrb	r3, [r3, #6]
 800146c:	00db      	lsls	r3, r3, #3
 800146e:	68fa      	ldr	r2, [r7, #12]
 8001470:	4313      	orrs	r3, r2
 8001472:	60fb      	str	r3, [r7, #12]

	/* -------- CPOL & CPHA -------- */
	temp |= (pSPIHandle->SPI_Config.CPOL << SPI_CR1_CPOL);
 8001474:	687b      	ldr	r3, [r7, #4]
 8001476:	7a1b      	ldrb	r3, [r3, #8]
 8001478:	005b      	lsls	r3, r3, #1
 800147a:	68fa      	ldr	r2, [r7, #12]
 800147c:	4313      	orrs	r3, r2
 800147e:	60fb      	str	r3, [r7, #12]
	temp |= (pSPIHandle->SPI_Config.CPHA << SPI_CR1_CPHA);
 8001480:	687b      	ldr	r3, [r7, #4]
 8001482:	7a5b      	ldrb	r3, [r3, #9]
 8001484:	461a      	mov	r2, r3
 8001486:	68fb      	ldr	r3, [r7, #12]
 8001488:	4313      	orrs	r3, r2
 800148a:	60fb      	str	r3, [r7, #12]

	/* -------- DFF -------- */
	/* -------- Data size (CR2 DS bits) -------- */
	pSPIHandle->pSPIx->CR2 &= ~(0xF << SPI_CR2_DS);
 800148c:	687b      	ldr	r3, [r7, #4]
 800148e:	681b      	ldr	r3, [r3, #0]
 8001490:	685a      	ldr	r2, [r3, #4]
 8001492:	687b      	ldr	r3, [r7, #4]
 8001494:	681b      	ldr	r3, [r3, #0]
 8001496:	f422 6270 	bic.w	r2, r2, #3840	@ 0xf00
 800149a:	605a      	str	r2, [r3, #4]

	if (pSPIHandle->SPI_Config.DFF == SPI_DFF_8BITS) {
 800149c:	687b      	ldr	r3, [r7, #4]
 800149e:	79db      	ldrb	r3, [r3, #7]
 80014a0:	2b00      	cmp	r3, #0
 80014a2:	d110      	bne.n	80014c6 <SPI_Init+0xbe>
		pSPIHandle->pSPIx->CR2 |= (7 << SPI_CR2_DS);
 80014a4:	687b      	ldr	r3, [r7, #4]
 80014a6:	681b      	ldr	r3, [r3, #0]
 80014a8:	685a      	ldr	r2, [r3, #4]
 80014aa:	687b      	ldr	r3, [r7, #4]
 80014ac:	681b      	ldr	r3, [r3, #0]
 80014ae:	f442 62e0 	orr.w	r2, r2, #1792	@ 0x700
 80014b2:	605a      	str	r2, [r3, #4]

		/* RXNE when 8-bit received */
		pSPIHandle->pSPIx->CR2 |= (1 << SPI_CR2_FRXTH);
 80014b4:	687b      	ldr	r3, [r7, #4]
 80014b6:	681b      	ldr	r3, [r3, #0]
 80014b8:	685a      	ldr	r2, [r3, #4]
 80014ba:	687b      	ldr	r3, [r7, #4]
 80014bc:	681b      	ldr	r3, [r3, #0]
 80014be:	f442 5280 	orr.w	r2, r2, #4096	@ 0x1000
 80014c2:	605a      	str	r2, [r3, #4]
 80014c4:	e007      	b.n	80014d6 <SPI_Init+0xce>
	} else
		pSPIHandle->pSPIx->CR2 |= (15 << SPI_CR2_DS);
 80014c6:	687b      	ldr	r3, [r7, #4]
 80014c8:	681b      	ldr	r3, [r3, #0]
 80014ca:	685a      	ldr	r2, [r3, #4]
 80014cc:	687b      	ldr	r3, [r7, #4]
 80014ce:	681b      	ldr	r3, [r3, #0]
 80014d0:	f442 6270 	orr.w	r2, r2, #3840	@ 0xf00
 80014d4:	605a      	str	r2, [r3, #4]

	/* -------- SSM -------- */
	temp |= (pSPIHandle->SPI_Config.SSM << SPI_CR1_SSM);
 80014d6:	687b      	ldr	r3, [r7, #4]
 80014d8:	7a9b      	ldrb	r3, [r3, #10]
 80014da:	025b      	lsls	r3, r3, #9
 80014dc:	68fa      	ldr	r2, [r7, #12]
 80014de:	4313      	orrs	r3, r2
 80014e0:	60fb      	str	r3, [r7, #12]

	pSPIHandle->pSPIx->CR1 = temp;
 80014e2:	687b      	ldr	r3, [r7, #4]
 80014e4:	681b      	ldr	r3, [r3, #0]
 80014e6:	68fa      	ldr	r2, [r7, #12]
 80014e8:	601a      	str	r2, [r3, #0]

	/* -------- SSI (must for master + SSM) -------- */
	if (pSPIHandle->SPI_Config.SSM == SPI_SSM_EN) {
 80014ea:	687b      	ldr	r3, [r7, #4]
 80014ec:	7a9b      	ldrb	r3, [r3, #10]
 80014ee:	2b01      	cmp	r3, #1
 80014f0:	d107      	bne.n	8001502 <SPI_Init+0xfa>
		pSPIHandle->pSPIx->CR1 |= (1 << SPI_CR1_SSI);
 80014f2:	687b      	ldr	r3, [r7, #4]
 80014f4:	681b      	ldr	r3, [r3, #0]
 80014f6:	681a      	ldr	r2, [r3, #0]
 80014f8:	687b      	ldr	r3, [r7, #4]
 80014fa:	681b      	ldr	r3, [r3, #0]
 80014fc:	f442 7280 	orr.w	r2, r2, #256	@ 0x100
 8001500:	601a      	str	r2, [r3, #0]
	}

	/* -------- Enable SPI -------- */
	pSPIHandle->pSPIx->CR1 |= (1 << SPI_CR1_SPE);
 8001502:	687b      	ldr	r3, [r7, #4]
 8001504:	681b      	ldr	r3, [r3, #0]
 8001506:	681a      	ldr	r2, [r3, #0]
 8001508:	687b      	ldr	r3, [r7, #4]
 800150a:	681b      	ldr	r3, [r3, #0]
 800150c:	f042 0240 	orr.w	r2, r2, #64	@ 0x40
 8001510:	601a      	str	r2, [r3, #0]
}
 8001512:	bf00      	nop
 8001514:	3710      	adds	r7, #16
 8001516:	46bd      	mov	sp, r7
 8001518:	bd80      	pop	{r7, pc}

0800151a <SPI_SendData>:

/* ================= SEND ================= */

void SPI_SendData(SPI_RegDef_t *pSPIx, uint8_t *pTxBuffer, uint32_t Len) {
 800151a:	b580      	push	{r7, lr}
 800151c:	b084      	sub	sp, #16
 800151e:	af00      	add	r7, sp, #0
 8001520:	60f8      	str	r0, [r7, #12]
 8001522:	60b9      	str	r1, [r7, #8]
 8001524:	607a      	str	r2, [r7, #4]
	while (Len > 0) {
 8001526:	e00b      	b.n	8001540 <SPI_SendData+0x26>
		SPI_Transfer(pSPIx, *pTxBuffer);
 8001528:	68bb      	ldr	r3, [r7, #8]
 800152a:	781b      	ldrb	r3, [r3, #0]
 800152c:	4619      	mov	r1, r3
 800152e:	68f8      	ldr	r0, [r7, #12]
 8001530:	f000 f82b 	bl	800158a <SPI_Transfer>

		pTxBuffer++;
 8001534:	68bb      	ldr	r3, [r7, #8]
 8001536:	3301      	adds	r3, #1
 8001538:	60bb      	str	r3, [r7, #8]
		Len--;
 800153a:	687b      	ldr	r3, [r7, #4]
 800153c:	3b01      	subs	r3, #1
 800153e:	607b      	str	r3, [r7, #4]
	while (Len > 0) {
 8001540:	687b      	ldr	r3, [r7, #4]
 8001542:	2b00      	cmp	r3, #0
 8001544:	d1f0      	bne.n	8001528 <SPI_SendData+0xe>
	}
}
 8001546:	bf00      	nop
 8001548:	bf00      	nop
 800154a:	3710      	adds	r7, #16
 800154c:	46bd      	mov	sp, r7
 800154e:	bd80      	pop	{r7, pc}

08001550 <SPI_ReceiveData>:

/* ================= RECEIVE ================= */

void SPI_ReceiveData(SPI_RegDef_t *pSPIx, uint8_t *pRxBuffer, uint32_t Len) {
 8001550:	b580      	push	{r7, lr}
 8001552:	b084      	sub	sp, #16
 8001554:	af00      	add	r7, sp, #0
 8001556:	60f8      	str	r0, [r7, #12]
 8001558:	60b9      	str	r1, [r7, #8]
 800155a:	607a      	str	r2, [r7, #4]
	while (Len > 0) {
 800155c:	e00d      	b.n	800157a <SPI_ReceiveData+0x2a>
		*pRxBuffer = SPI_Transfer(pSPIx, 0xFF);
 800155e:	21ff      	movs	r1, #255	@ 0xff
 8001560:	68f8      	ldr	r0, [r7, #12]
 8001562:	f000 f812 	bl	800158a <SPI_Transfer>
 8001566:	4603      	mov	r3, r0
 8001568:	461a      	mov	r2, r3
 800156a:	68bb      	ldr	r3, [r7, #8]
 800156c:	701a      	strb	r2, [r3, #0]

		pRxBuffer++;
 800156e:	68bb      	ldr	r3, [r7, #8]
 8001570:	3301      	adds	r3, #1
 8001572:	60bb      	str	r3, [r7, #8]
		Len--;
 8001574:	687b      	ldr	r3, [r7, #4]
 8001576:	3b01      	subs	r3, #1
 8001578:	607b      	str	r3, [r7, #4]
	while (Len > 0) {
 800157a:	687b      	ldr	r3, [r7, #4]
 800157c:	2b00      	cmp	r3, #0
 800157e:	d1ee      	bne.n	800155e <SPI_ReceiveData+0xe>
	}
}
 8001580:	bf00      	nop
 8001582:	bf00      	nop
 8001584:	3710      	adds	r7, #16
 8001586:	46bd      	mov	sp, r7
 8001588:	bd80      	pop	{r7, pc}

0800158a <SPI_Transfer>:

uint8_t SPI_Transfer(SPI_RegDef_t *pSPIx, uint8_t data) {
 800158a:	b480      	push	{r7}
 800158c:	b083      	sub	sp, #12
 800158e:	af00      	add	r7, sp, #0
 8001590:	6078      	str	r0, [r7, #4]
 8001592:	460b      	mov	r3, r1
 8001594:	70fb      	strb	r3, [r7, #3]
	while (!(pSPIx->SR & SPI_TXE_FLAG))
 8001596:	bf00      	nop
 8001598:	687b      	ldr	r3, [r7, #4]
 800159a:	689b      	ldr	r3, [r3, #8]
 800159c:	f003 0302 	and.w	r3, r3, #2
 80015a0:	2b00      	cmp	r3, #0
 80015a2:	d0f9      	beq.n	8001598 <SPI_Transfer+0xe>
		;

	*((volatile uint8_t*) &pSPIx->DR) = data;
 80015a4:	687b      	ldr	r3, [r7, #4]
 80015a6:	330c      	adds	r3, #12
 80015a8:	78fa      	ldrb	r2, [r7, #3]
 80015aa:	701a      	strb	r2, [r3, #0]

	while (!(pSPIx->SR & SPI_RXNE_FLAG))
 80015ac:	bf00      	nop
 80015ae:	687b      	ldr	r3, [r7, #4]
 80015b0:	689b      	ldr	r3, [r3, #8]
 80015b2:	f003 0301 	and.w	r3, r3, #1
 80015b6:	2b00      	cmp	r3, #0
 80015b8:	d0f9      	beq.n	80015ae <SPI_Transfer+0x24>
		;

	return *((volatile uint8_t*) &pSPIx->DR);
 80015ba:	687b      	ldr	r3, [r7, #4]
 80015bc:	330c      	adds	r3, #12
 80015be:	781b      	ldrb	r3, [r3, #0]
 80015c0:	b2db      	uxtb	r3, r3
}
 80015c2:	4618      	mov	r0, r3
 80015c4:	370c      	adds	r7, #12
 80015c6:	46bd      	mov	sp, r7
 80015c8:	f85d 7b04 	ldr.w	r7, [sp], #4
 80015cc:	4770      	bx	lr

080015ce <delay_us>:
volatile uint8_t spi_done = 0;

#define TRIG_PIN  0   // PA0
#define ECHO_PIN  1   // PA1

void delay_us(uint32_t time) {
 80015ce:	b480      	push	{r7}
 80015d0:	b085      	sub	sp, #20
 80015d2:	af00      	add	r7, sp, #0
 80015d4:	6078      	str	r0, [r7, #4]
	for (uint32_t i = 0; i < time * 10; i++)
 80015d6:	2300      	movs	r3, #0
 80015d8:	60fb      	str	r3, [r7, #12]
 80015da:	e002      	b.n	80015e2 <delay_us+0x14>
 80015dc:	68fb      	ldr	r3, [r7, #12]
 80015de:	3301      	adds	r3, #1
 80015e0:	60fb      	str	r3, [r7, #12]
 80015e2:	687a      	ldr	r2, [r7, #4]
 80015e4:	4613      	mov	r3, r2
 80015e6:	009b      	lsls	r3, r3, #2
 80015e8:	4413      	add	r3, r2
 80015ea:	005b      	lsls	r3, r3, #1
 80015ec:	461a      	mov	r2, r3
 80015ee:	68fb      	ldr	r3, [r7, #12]
 80015f0:	4293      	cmp	r3, r2
 80015f2:	d3f3      	bcc.n	80015dc <delay_us+0xe>
		;
}
 80015f4:	bf00      	nop
 80015f6:	bf00      	nop
 80015f8:	3714      	adds	r7, #20
 80015fa:	46bd      	mov	sp, r7
 80015fc:	f85d 7b04 	ldr.w	r7, [sp], #4
 8001600:	4770      	bx	lr

08001602 <delay_ms>:

void delay_ms(uint32_t time) {
 8001602:	b480      	push	{r7}
 8001604:	b085      	sub	sp, #20
 8001606:	af00      	add	r7, sp, #0
 8001608:	6078      	str	r0, [r7, #4]
	for (uint32_t i = 0; i < time * 8000; i++)
 800160a:	2300      	movs	r3, #0
 800160c:	60fb      	str	r3, [r7, #12]
 800160e:	e003      	b.n	8001618 <delay_ms+0x16>
		__asm("nop");
 8001610:	bf00      	nop
	for (uint32_t i = 0; i < time * 8000; i++)
 8001612:	68fb      	ldr	r3, [r7, #12]
 8001614:	3301      	adds	r3, #1
 8001616:	60fb      	str	r3, [r7, #12]
 8001618:	687b      	ldr	r3, [r7, #4]
 800161a:	f44f 52fa 	mov.w	r2, #8000	@ 0x1f40
 800161e:	fb02 f303 	mul.w	r3, r2, r3
 8001622:	68fa      	ldr	r2, [r7, #12]
 8001624:	429a      	cmp	r2, r3
 8001626:	d3f3      	bcc.n	8001610 <delay_ms+0xe>
}
 8001628:	bf00      	nop
 800162a:	bf00      	nop
 800162c:	3714      	adds	r7, #20
 800162e:	46bd      	mov	sp, r7
 8001630:	f85d 7b04 	ldr.w	r7, [sp], #4
 8001634:	4770      	bx	lr

08001636 <Ultrasonic_Init>:

/* -------- SENSOR INIT -------- */
void Ultrasonic_Init(void) {
 8001636:	b580      	push	{r7, lr}
 8001638:	b086      	sub	sp, #24
 800163a:	af00      	add	r7, sp, #0
	GPIO_Handle_t trig, echo;

	/* TRIG → OUTPUT */
	trig.pGPIOx = GPIOA;
 800163c:	f04f 4390 	mov.w	r3, #1207959552	@ 0x48000000
 8001640:	60fb      	str	r3, [r7, #12]
	trig.GPIO_PinConfig.GPIO_PinNumber = TRIG_PIN;
 8001642:	2300      	movs	r3, #0
 8001644:	743b      	strb	r3, [r7, #16]
	trig.GPIO_PinConfig.GPIO_PinMode = GPIO_MODE_OUTPUT;
 8001646:	2301      	movs	r3, #1
 8001648:	747b      	strb	r3, [r7, #17]
	trig.GPIO_PinConfig.GPIO_PinSpeed = GPIO_SPEED_LOW;
 800164a:	2300      	movs	r3, #0
 800164c:	74bb      	strb	r3, [r7, #18]
	trig.GPIO_PinConfig.GPIO_PinOPType = GPIO_OP_TYPE_PP;
 800164e:	2300      	movs	r3, #0
 8001650:	753b      	strb	r3, [r7, #20]
	trig.GPIO_PinConfig.GPIO_PinPuPdControl = GPIO_NO_PUPD;
 8001652:	2300      	movs	r3, #0
 8001654:	74fb      	strb	r3, [r7, #19]

	GPIO_Init(&trig);
 8001656:	f107 030c 	add.w	r3, r7, #12
 800165a:	4618      	mov	r0, r3
 800165c:	f7ff fbc2 	bl	8000de4 <GPIO_Init>

	/* ECHO → INPUT */
	echo.pGPIOx = GPIOA;
 8001660:	f04f 4390 	mov.w	r3, #1207959552	@ 0x48000000
 8001664:	603b      	str	r3, [r7, #0]
	echo.GPIO_PinConfig.GPIO_PinNumber = ECHO_PIN;
 8001666:	2301      	movs	r3, #1
 8001668:	713b      	strb	r3, [r7, #4]
	echo.GPIO_PinConfig.GPIO_PinMode = GPIO_MODE_INPUT;
 800166a:	2300      	movs	r3, #0
 800166c:	717b      	strb	r3, [r7, #5]
	echo.GPIO_PinConfig.GPIO_PinSpeed = GPIO_SPEED_LOW;
 800166e:	2300      	movs	r3, #0
 8001670:	71bb      	strb	r3, [r7, #6]
	echo.GPIO_PinConfig.GPIO_PinPuPdControl = GPIO_NO_PUPD;
 8001672:	2300      	movs	r3, #0
 8001674:	71fb      	strb	r3, [r7, #7]

	GPIO_Init(&echo);
 8001676:	463b      	mov	r3, r7
 8001678:	4618      	mov	r0, r3
 800167a:	f7ff fbb3 	bl	8000de4 <GPIO_Init>
}
 800167e:	bf00      	nop
 8001680:	3718      	adds	r7, #24
 8001682:	46bd      	mov	sp, r7
 8001684:	bd80      	pop	{r7, pc}

08001686 <Ultrasonic_Read>:

/* -------- READ DISTANCE -------- */
uint32_t Ultrasonic_Read(void) {
 8001686:	b580      	push	{r7, lr}
 8001688:	b082      	sub	sp, #8
 800168a:	af00      	add	r7, sp, #0
	uint32_t time = 0;
 800168c:	2300      	movs	r3, #0
 800168e:	607b      	str	r3, [r7, #4]
	uint32_t timeout;

	/* Send trigger pulse */
	GPIO_WriteToOutputPin(GPIOA, TRIG_PIN, 0);
 8001690:	2200      	movs	r2, #0
 8001692:	2100      	movs	r1, #0
 8001694:	f04f 4090 	mov.w	r0, #1207959552	@ 0x48000000
 8001698:	f7ff fd71 	bl	800117e <GPIO_WriteToOutputPin>
	delay_us(2);
 800169c:	2002      	movs	r0, #2
 800169e:	f7ff ff96 	bl	80015ce <delay_us>

	GPIO_WriteToOutputPin(GPIOA, TRIG_PIN, 1);
 80016a2:	2201      	movs	r2, #1
 80016a4:	2100      	movs	r1, #0
 80016a6:	f04f 4090 	mov.w	r0, #1207959552	@ 0x48000000
 80016aa:	f7ff fd68 	bl	800117e <GPIO_WriteToOutputPin>
	delay_us(10);
 80016ae:	200a      	movs	r0, #10
 80016b0:	f7ff ff8d 	bl	80015ce <delay_us>

	GPIO_WriteToOutputPin(GPIOA, TRIG_PIN, 0);
 80016b4:	2200      	movs	r2, #0
 80016b6:	2100      	movs	r1, #0
 80016b8:	f04f 4090 	mov.w	r0, #1207959552	@ 0x48000000
 80016bc:	f7ff fd5f 	bl	800117e <GPIO_WriteToOutputPin>

	/* Wait for ECHO HIGH */
	timeout = 30000;
 80016c0:	f247 5330 	movw	r3, #30000	@ 0x7530
 80016c4:	603b      	str	r3, [r7, #0]

	while (GPIO_ReadFromInputPin(GPIOA, ECHO_PIN) == 0) {
 80016c6:	e007      	b.n	80016d8 <Ultrasonic_Read+0x52>
		if (--timeout == 0)
 80016c8:	683b      	ldr	r3, [r7, #0]
 80016ca:	3b01      	subs	r3, #1
 80016cc:	603b      	str	r3, [r7, #0]
 80016ce:	683b      	ldr	r3, [r7, #0]
 80016d0:	2b00      	cmp	r3, #0
 80016d2:	d101      	bne.n	80016d8 <Ultrasonic_Read+0x52>
			return 0;
 80016d4:	2300      	movs	r3, #0
 80016d6:	e015      	b.n	8001704 <Ultrasonic_Read+0x7e>
	while (GPIO_ReadFromInputPin(GPIOA, ECHO_PIN) == 0) {
 80016d8:	2101      	movs	r1, #1
 80016da:	f04f 4090 	mov.w	r0, #1207959552	@ 0x48000000
 80016de:	f7ff fd39 	bl	8001154 <GPIO_ReadFromInputPin>
 80016e2:	4603      	mov	r3, r0
 80016e4:	2b00      	cmp	r3, #0
 80016e6:	d0ef      	beq.n	80016c8 <Ultrasonic_Read+0x42>
	}

	/* Measure HIGH duration */
	//timeout = 30000;
	while (GPIO_ReadFromInputPin(GPIOA, ECHO_PIN) == 1) {
 80016e8:	e003      	b.n	80016f2 <Ultrasonic_Read+0x6c>
		time++;
 80016ea:	687b      	ldr	r3, [r7, #4]
 80016ec:	3301      	adds	r3, #1
 80016ee:	607b      	str	r3, [r7, #4]
		__asm("nop");
 80016f0:	bf00      	nop
	while (GPIO_ReadFromInputPin(GPIOA, ECHO_PIN) == 1) {
 80016f2:	2101      	movs	r1, #1
 80016f4:	f04f 4090 	mov.w	r0, #1207959552	@ 0x48000000
 80016f8:	f7ff fd2c 	bl	8001154 <GPIO_ReadFromInputPin>
 80016fc:	4603      	mov	r3, r0
 80016fe:	2b01      	cmp	r3, #1
 8001700:	d0f3      	beq.n	80016ea <Ultrasonic_Read+0x64>

	}

	return time;
 8001702:	687b      	ldr	r3, [r7, #4]
}
 8001704:	4618      	mov	r0, r3
 8001706:	3708      	adds	r7, #8
 8001708:	46bd      	mov	sp, r7
 800170a:	bd80      	pop	{r7, pc}

0800170c <SPI_GPIO_Init>:

SPI_Handle_t SPI1Handle;

void SPI_GPIO_Init(void) {
 800170c:	b580      	push	{r7, lr}
 800170e:	b084      	sub	sp, #16
 8001710:	af00      	add	r7, sp, #0
	GPIO_Handle_t spiPins;

	memset(&spiPins, 0, sizeof(spiPins));
 8001712:	1d3b      	adds	r3, r7, #4
 8001714:	220c      	movs	r2, #12
 8001716:	2100      	movs	r1, #0
 8001718:	4618      	mov	r0, r3
 800171a:	f001 f838 	bl	800278e <memset>

	spiPins.pGPIOx = GPIOA;
 800171e:	f04f 4390 	mov.w	r3, #1207959552	@ 0x48000000
 8001722:	607b      	str	r3, [r7, #4]

	spiPins.GPIO_PinConfig.GPIO_PinMode = GPIO_MODE_ALTFN;
 8001724:	2302      	movs	r3, #2
 8001726:	727b      	strb	r3, [r7, #9]
	spiPins.GPIO_PinConfig.GPIO_PinAltFunMode = 5; // AF5 (SPI1)
 8001728:	2305      	movs	r3, #5
 800172a:	737b      	strb	r3, [r7, #13]
	spiPins.GPIO_PinConfig.GPIO_PinSpeed = GPIO_SPEED_FAST;
 800172c:	2302      	movs	r3, #2
 800172e:	72bb      	strb	r3, [r7, #10]
	spiPins.GPIO_PinConfig.GPIO_PinOPType = GPIO_OP_TYPE_PP;
 8001730:	2300      	movs	r3, #0
 8001732:	733b      	strb	r3, [r7, #12]
	spiPins.GPIO_PinConfig.GPIO_PinPuPdControl = GPIO_NO_PUPD;
 8001734:	2300      	movs	r3, #0
 8001736:	72fb      	strb	r3, [r7, #11]

	// SCK
	spiPins.GPIO_PinConfig.GPIO_PinNumber = 5;
 8001738:	2305      	movs	r3, #5
 800173a:	723b      	strb	r3, [r7, #8]
	GPIO_Init(&spiPins);
 800173c:	1d3b      	adds	r3, r7, #4
 800173e:	4618      	mov	r0, r3
 8001740:	f7ff fb50 	bl	8000de4 <GPIO_Init>

	// MISO
	spiPins.GPIO_PinConfig.GPIO_PinNumber = 6;
 8001744:	2306      	movs	r3, #6
 8001746:	723b      	strb	r3, [r7, #8]
	GPIO_Init(&spiPins);
 8001748:	1d3b      	adds	r3, r7, #4
 800174a:	4618      	mov	r0, r3
 800174c:	f7ff fb4a 	bl	8000de4 <GPIO_Init>

	// MOSI
	spiPins.GPIO_PinConfig.GPIO_PinNumber = 7;
 8001750:	2307      	movs	r3, #7
 8001752:	723b      	strb	r3, [r7, #8]
	GPIO_Init(&spiPins);
 8001754:	1d3b      	adds	r3, r7, #4
 8001756:	4618      	mov	r0, r3
 8001758:	f7ff fb44 	bl	8000de4 <GPIO_Init>

	// CS (manual)
	spiPins.GPIO_PinConfig.GPIO_PinMode = GPIO_MODE_OUTPUT;
 800175c:	2301      	movs	r3, #1
 800175e:	727b      	strb	r3, [r7, #9]
	spiPins.GPIO_PinConfig.GPIO_PinNumber = 4;
 8001760:	2304      	movs	r3, #4
 8001762:	723b      	strb	r3, [r7, #8]
	GPIO_Init(&spiPins);
 8001764:	1d3b      	adds	r3, r7, #4
 8001766:	4618      	mov	r0, r3
 8001768:	f7ff fb3c 	bl	8000de4 <GPIO_Init>

	GPIO_WriteToOutputPin(GPIOA, 4, 1); // CS HIGH
 800176c:	2201      	movs	r2, #1
 800176e:	2104      	movs	r1, #4
 8001770:	f04f 4090 	mov.w	r0, #1207959552	@ 0x48000000
 8001774:	f7ff fd03 	bl	800117e <GPIO_WriteToOutputPin>
}
 8001778:	bf00      	nop
 800177a:	3710      	adds	r7, #16
 800177c:	46bd      	mov	sp, r7
 800177e:	bd80      	pop	{r7, pc}

08001780 <EXTI15_10_IRQHandler>:

uint8_t print_logs = 0;

void EXTI15_10_IRQHandler(void) {
 8001780:	b580      	push	{r7, lr}
 8001782:	af00      	add	r7, sp, #0

	GPIO_IRQHandling(13);
 8001784:	200d      	movs	r0, #13
 8001786:	f7ff fdc7 	bl	8001318 <GPIO_IRQHandling>
	print_logs = 1;
 800178a:	4b02      	ldr	r3, [pc, #8]	@ (8001794 <EXTI15_10_IRQHandler+0x14>)
 800178c:	2201      	movs	r2, #1
 800178e:	701a      	strb	r2, [r3, #0]
}
 8001790:	bf00      	nop
 8001792:	bd80      	pop	{r7, pc}
 8001794:	200001f0 	.word	0x200001f0

08001798 <main>:
uint8_t read_buf[4];
uint8_t buf[4];

float dist;

int main(void) {
 8001798:	b580      	push	{r7, lr}
 800179a:	b086      	sub	sp, #24
 800179c:	af00      	add	r7, sp, #0

	GPIO_Handle_t Button;
	/* -------- BUTTON PC13 -------- */
	Button.pGPIOx = GPIOC;
 800179e:	4b3d      	ldr	r3, [pc, #244]	@ (8001894 <main+0xfc>)
 80017a0:	607b      	str	r3, [r7, #4]
	Button.GPIO_PinConfig.GPIO_PinNumber = 13;
 80017a2:	230d      	movs	r3, #13
 80017a4:	723b      	strb	r3, [r7, #8]
	Button.GPIO_PinConfig.GPIO_PinMode = GPIO_MODE_IT_FT;
 80017a6:	2304      	movs	r3, #4
 80017a8:	727b      	strb	r3, [r7, #9]
	Button.GPIO_PinConfig.GPIO_PinSpeed = GPIO_SPEED_FAST;
 80017aa:	2302      	movs	r3, #2
 80017ac:	72bb      	strb	r3, [r7, #10]
	Button.GPIO_PinConfig.GPIO_PinPuPdControl = GPIO_PIN_PU;
 80017ae:	2301      	movs	r3, #1
 80017b0:	72fb      	strb	r3, [r7, #11]

	GPIO_Init(&Button);
 80017b2:	1d3b      	adds	r3, r7, #4
 80017b4:	4618      	mov	r0, r3
 80017b6:	f7ff fb15 	bl	8000de4 <GPIO_Init>

	/* -------- NVIC -------- */
	GPIO_IRQConfig(40, 2, ENABLE);
 80017ba:	2201      	movs	r2, #1
 80017bc:	2102      	movs	r1, #2
 80017be:	2028      	movs	r0, #40	@ 0x28
 80017c0:	f7ff fcfe 	bl	80011c0 <GPIO_IRQConfig>

	SPI_GPIO_Init();
 80017c4:	f7ff ffa2 	bl	800170c <SPI_GPIO_Init>

	SPI1Handle.pSPIx = SPI1;
 80017c8:	4b33      	ldr	r3, [pc, #204]	@ (8001898 <main+0x100>)
 80017ca:	4a34      	ldr	r2, [pc, #208]	@ (800189c <main+0x104>)
 80017cc:	601a      	str	r2, [r3, #0]

	SPI1Handle.SPI_Config.DeviceMode = SPI_DEVICE_MODE_MASTER;
 80017ce:	4b32      	ldr	r3, [pc, #200]	@ (8001898 <main+0x100>)
 80017d0:	2201      	movs	r2, #1
 80017d2:	711a      	strb	r2, [r3, #4]
	SPI1Handle.SPI_Config.BusConfig = SPI_BUS_CONFIG_FD;
 80017d4:	4b30      	ldr	r3, [pc, #192]	@ (8001898 <main+0x100>)
 80017d6:	2201      	movs	r2, #1
 80017d8:	715a      	strb	r2, [r3, #5]
	SPI1Handle.SPI_Config.SclkSpeed = SPI_SCLK_SPEED_DIV16;
 80017da:	4b2f      	ldr	r3, [pc, #188]	@ (8001898 <main+0x100>)
 80017dc:	2203      	movs	r2, #3
 80017de:	719a      	strb	r2, [r3, #6]
	SPI1Handle.SPI_Config.DFF = SPI_DFF_8BITS;
 80017e0:	4b2d      	ldr	r3, [pc, #180]	@ (8001898 <main+0x100>)
 80017e2:	2200      	movs	r2, #0
 80017e4:	71da      	strb	r2, [r3, #7]
	SPI1Handle.SPI_Config.CPOL = SPI_CPOL_LOW;
 80017e6:	4b2c      	ldr	r3, [pc, #176]	@ (8001898 <main+0x100>)
 80017e8:	2200      	movs	r2, #0
 80017ea:	721a      	strb	r2, [r3, #8]
	SPI1Handle.SPI_Config.CPHA = SPI_CPHA_LOW;
 80017ec:	4b2a      	ldr	r3, [pc, #168]	@ (8001898 <main+0x100>)
 80017ee:	2200      	movs	r2, #0
 80017f0:	725a      	strb	r2, [r3, #9]
	SPI1Handle.SPI_Config.SSM = SPI_SSM_EN;
 80017f2:	4b29      	ldr	r3, [pc, #164]	@ (8001898 <main+0x100>)
 80017f4:	2201      	movs	r2, #1
 80017f6:	729a      	strb	r2, [r3, #10]

	SPI_Init(&SPI1Handle);
 80017f8:	4827      	ldr	r0, [pc, #156]	@ (8001898 <main+0x100>)
 80017fa:	f7ff fe05 	bl	8001408 <SPI_Init>

	W25Q_Init();
 80017fe:	f000 f94f 	bl	8001aa0 <W25Q_Init>

	W25Q_EraseSector(0);
 8001802:	2000      	movs	r0, #0
 8001804:	f000 fa1a 	bl	8001c3c <W25Q_EraseSector>

	Ultrasonic_Init();
 8001808:	f7ff ff15 	bl	8001636 <Ultrasonic_Init>

	uint32_t addr = 0;
 800180c:	2300      	movs	r3, #0
 800180e:	617b      	str	r3, [r7, #20]

	while (1) {
		uint32_t time = Ultrasonic_Read();
 8001810:	f7ff ff39 	bl	8001686 <Ultrasonic_Read>
 8001814:	6138      	str	r0, [r7, #16]

		dist = time / 38.00;
 8001816:	6938      	ldr	r0, [r7, #16]
 8001818:	f7fe fe74 	bl	8000504 <__aeabi_ui2d>
 800181c:	f04f 0200 	mov.w	r2, #0
 8001820:	4b1f      	ldr	r3, [pc, #124]	@ (80018a0 <main+0x108>)
 8001822:	f7ff f813 	bl	800084c <__aeabi_ddiv>
 8001826:	4602      	mov	r2, r0
 8001828:	460b      	mov	r3, r1
 800182a:	4610      	mov	r0, r2
 800182c:	4619      	mov	r1, r3
 800182e:	f7ff f9bb 	bl	8000ba8 <__aeabi_d2f>
 8001832:	4603      	mov	r3, r0
 8001834:	4a1b      	ldr	r2, [pc, #108]	@ (80018a4 <main+0x10c>)
 8001836:	6013      	str	r3, [r2, #0]

		memcpy(buf, &dist, 4);
 8001838:	4b1a      	ldr	r3, [pc, #104]	@ (80018a4 <main+0x10c>)
 800183a:	681b      	ldr	r3, [r3, #0]
 800183c:	4a1a      	ldr	r2, [pc, #104]	@ (80018a8 <main+0x110>)
 800183e:	6013      	str	r3, [r2, #0]

		W25Q_Write(addr, buf, 4);
 8001840:	2204      	movs	r2, #4
 8001842:	4919      	ldr	r1, [pc, #100]	@ (80018a8 <main+0x110>)
 8001844:	6978      	ldr	r0, [r7, #20]
 8001846:	f000 f9cb 	bl	8001be0 <W25Q_Write>

		logCounter++;
 800184a:	4b18      	ldr	r3, [pc, #96]	@ (80018ac <main+0x114>)
 800184c:	681b      	ldr	r3, [r3, #0]
 800184e:	3301      	adds	r3, #1
 8001850:	4a16      	ldr	r2, [pc, #88]	@ (80018ac <main+0x114>)
 8001852:	6013      	str	r3, [r2, #0]

		delay_ms(10);
 8001854:	200a      	movs	r0, #10
 8001856:	f7ff fed4 	bl	8001602 <delay_ms>

		if (print_logs) {
 800185a:	4b15      	ldr	r3, [pc, #84]	@ (80018b0 <main+0x118>)
 800185c:	781b      	ldrb	r3, [r3, #0]
 800185e:	2b00      	cmp	r3, #0
 8001860:	d00b      	beq.n	800187a <main+0xe2>
			print_logs = 0;
 8001862:	4b13      	ldr	r3, [pc, #76]	@ (80018b0 <main+0x118>)
 8001864:	2200      	movs	r2, #0
 8001866:	701a      	strb	r2, [r3, #0]
			//for (uint32_t i = 0; i < count; i++)
			{
				//uint32_t index = (logCounter - count + i) % MAX_LOGS;
				//uint32_t read_addr = index * LOG_SIZE;

				W25Q_Read(addr, read_buf, 4);
 8001868:	2204      	movs	r2, #4
 800186a:	4912      	ldr	r1, [pc, #72]	@ (80018b4 <main+0x11c>)
 800186c:	6978      	ldr	r0, [r7, #20]
 800186e:	f000 f95d 	bl	8001b2c <W25Q_Read>

				memcpy(&debug_read, read_buf, 4);
 8001872:	4b10      	ldr	r3, [pc, #64]	@ (80018b4 <main+0x11c>)
 8001874:	681b      	ldr	r3, [r3, #0]
 8001876:	4a10      	ldr	r2, [pc, #64]	@ (80018b8 <main+0x120>)
 8001878:	6013      	str	r3, [r2, #0]

				//printf("[%ld] Distance = %.2f\r\n", (logCounter - i),debug_read);
			}
		}

		addr += 4;
 800187a:	697b      	ldr	r3, [r7, #20]
 800187c:	3304      	adds	r3, #4
 800187e:	617b      	str	r3, [r7, #20]

		if (addr >= (MAX_LOGS * LOG_SIZE))
 8001880:	697b      	ldr	r3, [r7, #20]
 8001882:	2b13      	cmp	r3, #19
 8001884:	d901      	bls.n	800188a <main+0xf2>
			addr = 0;
 8001886:	2300      	movs	r3, #0
 8001888:	617b      	str	r3, [r7, #20]

		delay_ms(100);
 800188a:	2064      	movs	r0, #100	@ 0x64
 800188c:	f7ff feb9 	bl	8001602 <delay_ms>
	while (1) {
 8001890:	e7be      	b.n	8001810 <main+0x78>
 8001892:	bf00      	nop
 8001894:	48000800 	.word	0x48000800
 8001898:	200001e4 	.word	0x200001e4
 800189c:	40013000 	.word	0x40013000
 80018a0:	40430000 	.word	0x40430000
 80018a4:	20000204 	.word	0x20000204
 80018a8:	20000200 	.word	0x20000200
 80018ac:	200001f4 	.word	0x200001f4
 80018b0:	200001f0 	.word	0x200001f0
 80018b4:	200001fc 	.word	0x200001fc
 80018b8:	200001f8 	.word	0x200001f8

080018bc <__io_putchar>:

#define ITM_PORT8(n)    (*((volatile uint8_t *)(0xE0000000 + 4 * (n))))
#define DEMCR           (*((volatile uint32_t *)0xE000EDFC))
#define TRCENA          0x01000000

int __io_putchar(int ch) {
 80018bc:	b480      	push	{r7}
 80018be:	b083      	sub	sp, #12
 80018c0:	af00      	add	r7, sp, #0
 80018c2:	6078      	str	r0, [r7, #4]
	/* Enable tracing */
	DEMCR |= TRCENA;
 80018c4:	4b08      	ldr	r3, [pc, #32]	@ (80018e8 <__io_putchar+0x2c>)
 80018c6:	681b      	ldr	r3, [r3, #0]
 80018c8:	4a07      	ldr	r2, [pc, #28]	@ (80018e8 <__io_putchar+0x2c>)
 80018ca:	f043 7380 	orr.w	r3, r3, #16777216	@ 0x1000000
 80018ce:	6013      	str	r3, [r2, #0]

	/* Send character to ITM Port 0 */
	ITM_PORT8(0) = (uint8_t) ch;
 80018d0:	f04f 4360 	mov.w	r3, #3758096384	@ 0xe0000000
 80018d4:	687a      	ldr	r2, [r7, #4]
 80018d6:	b2d2      	uxtb	r2, r2
 80018d8:	701a      	strb	r2, [r3, #0]

	return ch;
 80018da:	687b      	ldr	r3, [r7, #4]
}
 80018dc:	4618      	mov	r0, r3
 80018de:	370c      	adds	r7, #12
 80018e0:	46bd      	mov	sp, r7
 80018e2:	f85d 7b04 	ldr.w	r7, [sp], #4
 80018e6:	4770      	bx	lr
 80018e8:	e000edfc 	.word	0xe000edfc

080018ec <_getpid>:

/* Functions */
void initialise_monitor_handles() {
}

int _getpid(void) {
 80018ec:	b480      	push	{r7}
 80018ee:	af00      	add	r7, sp, #0
	return 1;
 80018f0:	2301      	movs	r3, #1
}
 80018f2:	4618      	mov	r0, r3
 80018f4:	46bd      	mov	sp, r7
 80018f6:	f85d 7b04 	ldr.w	r7, [sp], #4
 80018fa:	4770      	bx	lr

080018fc <_kill>:

int _kill(int pid, int sig) {
 80018fc:	b580      	push	{r7, lr}
 80018fe:	b082      	sub	sp, #8
 8001900:	af00      	add	r7, sp, #0
 8001902:	6078      	str	r0, [r7, #4]
 8001904:	6039      	str	r1, [r7, #0]
	(void) pid;
	(void) sig;
	errno = EINVAL;
 8001906:	f000 ff95 	bl	8002834 <__errno>
 800190a:	4603      	mov	r3, r0
 800190c:	2216      	movs	r2, #22
 800190e:	601a      	str	r2, [r3, #0]
	return -1;
 8001910:	f04f 33ff 	mov.w	r3, #4294967295
}
 8001914:	4618      	mov	r0, r3
 8001916:	3708      	adds	r7, #8
 8001918:	46bd      	mov	sp, r7
 800191a:	bd80      	pop	{r7, pc}

0800191c <_exit>:

void _exit(int status) {
 800191c:	b580      	push	{r7, lr}
 800191e:	b082      	sub	sp, #8
 8001920:	af00      	add	r7, sp, #0
 8001922:	6078      	str	r0, [r7, #4]
	_kill(status, -1);
 8001924:	f04f 31ff 	mov.w	r1, #4294967295
 8001928:	6878      	ldr	r0, [r7, #4]
 800192a:	f7ff ffe7 	bl	80018fc <_kill>
	while (1) {
 800192e:	bf00      	nop
 8001930:	e7fd      	b.n	800192e <_exit+0x12>

08001932 <_read>:
	} /* Make sure we hang here */
}

__attribute__((weak)) int _read(int file, char *ptr, int len) {
 8001932:	b580      	push	{r7, lr}
 8001934:	b086      	sub	sp, #24
 8001936:	af00      	add	r7, sp, #0
 8001938:	60f8      	str	r0, [r7, #12]
 800193a:	60b9      	str	r1, [r7, #8]
 800193c:	607a      	str	r2, [r7, #4]
	(void) file;
	int DataIdx;

	for (DataIdx = 0; DataIdx < len; DataIdx++) {
 800193e:	2300      	movs	r3, #0
 8001940:	617b      	str	r3, [r7, #20]
 8001942:	e00a      	b.n	800195a <_read+0x28>
		*ptr++ = __io_getchar();
 8001944:	f3af 8000 	nop.w
 8001948:	4601      	mov	r1, r0
 800194a:	68bb      	ldr	r3, [r7, #8]
 800194c:	1c5a      	adds	r2, r3, #1
 800194e:	60ba      	str	r2, [r7, #8]
 8001950:	b2ca      	uxtb	r2, r1
 8001952:	701a      	strb	r2, [r3, #0]
	for (DataIdx = 0; DataIdx < len; DataIdx++) {
 8001954:	697b      	ldr	r3, [r7, #20]
 8001956:	3301      	adds	r3, #1
 8001958:	617b      	str	r3, [r7, #20]
 800195a:	697a      	ldr	r2, [r7, #20]
 800195c:	687b      	ldr	r3, [r7, #4]
 800195e:	429a      	cmp	r2, r3
 8001960:	dbf0      	blt.n	8001944 <_read+0x12>
	}

	return len;
 8001962:	687b      	ldr	r3, [r7, #4]
}
 8001964:	4618      	mov	r0, r3
 8001966:	3718      	adds	r7, #24
 8001968:	46bd      	mov	sp, r7
 800196a:	bd80      	pop	{r7, pc}

0800196c <_write>:

__attribute__((weak)) int _write(int file, char *ptr, int len) {
 800196c:	b580      	push	{r7, lr}
 800196e:	b086      	sub	sp, #24
 8001970:	af00      	add	r7, sp, #0
 8001972:	60f8      	str	r0, [r7, #12]
 8001974:	60b9      	str	r1, [r7, #8]
 8001976:	607a      	str	r2, [r7, #4]
	(void) file;
	int DataIdx;

	for (DataIdx = 0; DataIdx < len; DataIdx++) {
 8001978:	2300      	movs	r3, #0
 800197a:	617b      	str	r3, [r7, #20]
 800197c:	e009      	b.n	8001992 <_write+0x26>
		__io_putchar(*ptr++);
 800197e:	68bb      	ldr	r3, [r7, #8]
 8001980:	1c5a      	adds	r2, r3, #1
 8001982:	60ba      	str	r2, [r7, #8]
 8001984:	781b      	ldrb	r3, [r3, #0]
 8001986:	4618      	mov	r0, r3
 8001988:	f7ff ff98 	bl	80018bc <__io_putchar>
	for (DataIdx = 0; DataIdx < len; DataIdx++) {
 800198c:	697b      	ldr	r3, [r7, #20]
 800198e:	3301      	adds	r3, #1
 8001990:	617b      	str	r3, [r7, #20]
 8001992:	697a      	ldr	r2, [r7, #20]
 8001994:	687b      	ldr	r3, [r7, #4]
 8001996:	429a      	cmp	r2, r3
 8001998:	dbf1      	blt.n	800197e <_write+0x12>
	}
	return len;
 800199a:	687b      	ldr	r3, [r7, #4]
}
 800199c:	4618      	mov	r0, r3
 800199e:	3718      	adds	r7, #24
 80019a0:	46bd      	mov	sp, r7
 80019a2:	bd80      	pop	{r7, pc}

080019a4 <_close>:

int _close(int file) {
 80019a4:	b480      	push	{r7}
 80019a6:	b083      	sub	sp, #12
 80019a8:	af00      	add	r7, sp, #0
 80019aa:	6078      	str	r0, [r7, #4]
	(void) file;
	return -1;
 80019ac:	f04f 33ff 	mov.w	r3, #4294967295
}
 80019b0:	4618      	mov	r0, r3
 80019b2:	370c      	adds	r7, #12
 80019b4:	46bd      	mov	sp, r7
 80019b6:	f85d 7b04 	ldr.w	r7, [sp], #4
 80019ba:	4770      	bx	lr

080019bc <_fstat>:

int _fstat(int file, struct stat *st) {
 80019bc:	b480      	push	{r7}
 80019be:	b083      	sub	sp, #12
 80019c0:	af00      	add	r7, sp, #0
 80019c2:	6078      	str	r0, [r7, #4]
 80019c4:	6039      	str	r1, [r7, #0]
	(void) file;
	st->st_mode = S_IFCHR;
 80019c6:	683b      	ldr	r3, [r7, #0]
 80019c8:	f44f 5200 	mov.w	r2, #8192	@ 0x2000
 80019cc:	605a      	str	r2, [r3, #4]
	return 0;
 80019ce:	2300      	movs	r3, #0
}
 80019d0:	4618      	mov	r0, r3
 80019d2:	370c      	adds	r7, #12
 80019d4:	46bd      	mov	sp, r7
 80019d6:	f85d 7b04 	ldr.w	r7, [sp], #4
 80019da:	4770      	bx	lr

080019dc <_isatty>:

int _isatty(int file) {
 80019dc:	b480      	push	{r7}
 80019de:	b083      	sub	sp, #12
 80019e0:	af00      	add	r7, sp, #0
 80019e2:	6078      	str	r0, [r7, #4]
	(void) file;
	return 1;
 80019e4:	2301      	movs	r3, #1
}
 80019e6:	4618      	mov	r0, r3
 80019e8:	370c      	adds	r7, #12
 80019ea:	46bd      	mov	sp, r7
 80019ec:	f85d 7b04 	ldr.w	r7, [sp], #4
 80019f0:	4770      	bx	lr

080019f2 <_lseek>:

int _lseek(int file, int ptr, int dir) {
 80019f2:	b480      	push	{r7}
 80019f4:	b085      	sub	sp, #20
 80019f6:	af00      	add	r7, sp, #0
 80019f8:	60f8      	str	r0, [r7, #12]
 80019fa:	60b9      	str	r1, [r7, #8]
 80019fc:	607a      	str	r2, [r7, #4]
	(void) file;
	(void) ptr;
	(void) dir;
	return 0;
 80019fe:	2300      	movs	r3, #0
}
 8001a00:	4618      	mov	r0, r3
 8001a02:	3714      	adds	r7, #20
 8001a04:	46bd      	mov	sp, r7
 8001a06:	f85d 7b04 	ldr.w	r7, [sp], #4
 8001a0a:	4770      	bx	lr

08001a0c <_sbrk>:
 *
 * @param incr Memory size
 * @return Pointer to allocated memory
 */
void *_sbrk(ptrdiff_t incr)
{
 8001a0c:	b580      	push	{r7, lr}
 8001a0e:	b086      	sub	sp, #24
 8001a10:	af00      	add	r7, sp, #0
 8001a12:	6078      	str	r0, [r7, #4]
  extern uint8_t _end; /* Symbol defined in the linker script */
  extern uint8_t _estack; /* Symbol defined in the linker script */
  extern uint32_t _Min_Stack_Size; /* Symbol defined in the linker script */
  const uint32_t stack_limit = (uint32_t)&_estack - (uint32_t)&_Min_Stack_Size;
 8001a14:	4a14      	ldr	r2, [pc, #80]	@ (8001a68 <_sbrk+0x5c>)
 8001a16:	4b15      	ldr	r3, [pc, #84]	@ (8001a6c <_sbrk+0x60>)
 8001a18:	1ad3      	subs	r3, r2, r3
 8001a1a:	617b      	str	r3, [r7, #20]
  const uint8_t *max_heap = (uint8_t *)stack_limit;
 8001a1c:	697b      	ldr	r3, [r7, #20]
 8001a1e:	613b      	str	r3, [r7, #16]
  uint8_t *prev_heap_end;

  /* Initialize heap end at first call */
  if (NULL == __sbrk_heap_end)
 8001a20:	4b13      	ldr	r3, [pc, #76]	@ (8001a70 <_sbrk+0x64>)
 8001a22:	681b      	ldr	r3, [r3, #0]
 8001a24:	2b00      	cmp	r3, #0
 8001a26:	d102      	bne.n	8001a2e <_sbrk+0x22>
  {
    __sbrk_heap_end = &_end;
 8001a28:	4b11      	ldr	r3, [pc, #68]	@ (8001a70 <_sbrk+0x64>)
 8001a2a:	4a12      	ldr	r2, [pc, #72]	@ (8001a74 <_sbrk+0x68>)
 8001a2c:	601a      	str	r2, [r3, #0]
  }

  /* Protect heap from growing into the reserved MSP stack */
  if (__sbrk_heap_end + incr > max_heap)
 8001a2e:	4b10      	ldr	r3, [pc, #64]	@ (8001a70 <_sbrk+0x64>)
 8001a30:	681a      	ldr	r2, [r3, #0]
 8001a32:	687b      	ldr	r3, [r7, #4]
 8001a34:	4413      	add	r3, r2
 8001a36:	693a      	ldr	r2, [r7, #16]
 8001a38:	429a      	cmp	r2, r3
 8001a3a:	d207      	bcs.n	8001a4c <_sbrk+0x40>
  {
    errno = ENOMEM;
 8001a3c:	f000 fefa 	bl	8002834 <__errno>
 8001a40:	4603      	mov	r3, r0
 8001a42:	220c      	movs	r2, #12
 8001a44:	601a      	str	r2, [r3, #0]
    return (void *)-1;
 8001a46:	f04f 33ff 	mov.w	r3, #4294967295
 8001a4a:	e009      	b.n	8001a60 <_sbrk+0x54>
  }

  prev_heap_end = __sbrk_heap_end;
 8001a4c:	4b08      	ldr	r3, [pc, #32]	@ (8001a70 <_sbrk+0x64>)
 8001a4e:	681b      	ldr	r3, [r3, #0]
 8001a50:	60fb      	str	r3, [r7, #12]
  __sbrk_heap_end += incr;
 8001a52:	4b07      	ldr	r3, [pc, #28]	@ (8001a70 <_sbrk+0x64>)
 8001a54:	681a      	ldr	r2, [r3, #0]
 8001a56:	687b      	ldr	r3, [r7, #4]
 8001a58:	4413      	add	r3, r2
 8001a5a:	4a05      	ldr	r2, [pc, #20]	@ (8001a70 <_sbrk+0x64>)
 8001a5c:	6013      	str	r3, [r2, #0]

  return (void *)prev_heap_end;
 8001a5e:	68fb      	ldr	r3, [r7, #12]
}
 8001a60:	4618      	mov	r0, r3
 8001a62:	3718      	adds	r7, #24
 8001a64:	46bd      	mov	sp, r7
 8001a66:	bd80      	pop	{r7, pc}
 8001a68:	20018000 	.word	0x20018000
 8001a6c:	00000400 	.word	0x00000400
 8001a70:	20000208 	.word	0x20000208
 8001a74:	20000358 	.word	0x20000358

08001a78 <W25Q_CS_LOW>:

#include "w25qxx.h"

/* ================= CS ================= */

void W25Q_CS_LOW(void) {
 8001a78:	b580      	push	{r7, lr}
 8001a7a:	af00      	add	r7, sp, #0
	GPIO_WriteToOutputPin(W25Q_CS_PORT, W25Q_CS_PIN, 0);
 8001a7c:	2200      	movs	r2, #0
 8001a7e:	2104      	movs	r1, #4
 8001a80:	f04f 4090 	mov.w	r0, #1207959552	@ 0x48000000
 8001a84:	f7ff fb7b 	bl	800117e <GPIO_WriteToOutputPin>
}
 8001a88:	bf00      	nop
 8001a8a:	bd80      	pop	{r7, pc}

08001a8c <W25Q_CS_HIGH>:

void W25Q_CS_HIGH(void) {
 8001a8c:	b580      	push	{r7, lr}
 8001a8e:	af00      	add	r7, sp, #0
	GPIO_WriteToOutputPin(W25Q_CS_PORT, W25Q_CS_PIN, 1);
 8001a90:	2201      	movs	r2, #1
 8001a92:	2104      	movs	r1, #4
 8001a94:	f04f 4090 	mov.w	r0, #1207959552	@ 0x48000000
 8001a98:	f7ff fb71 	bl	800117e <GPIO_WriteToOutputPin>
}
 8001a9c:	bf00      	nop
 8001a9e:	bd80      	pop	{r7, pc}

08001aa0 <W25Q_Init>:

/* ================= INIT ================= */

void W25Q_Init(void) {
 8001aa0:	b580      	push	{r7, lr}
 8001aa2:	af00      	add	r7, sp, #0
	W25Q_CS_HIGH();
 8001aa4:	f7ff fff2 	bl	8001a8c <W25Q_CS_HIGH>
}
 8001aa8:	bf00      	nop
 8001aaa:	bd80      	pop	{r7, pc}

08001aac <W25Q_WriteEnable>:

/* ================= WRITE ENABLE ================= */

void W25Q_WriteEnable(void) {
 8001aac:	b580      	push	{r7, lr}
 8001aae:	b082      	sub	sp, #8
 8001ab0:	af00      	add	r7, sp, #0
	uint8_t cmd = W25Q_CMD_WRITE_ENABLE;
 8001ab2:	2306      	movs	r3, #6
 8001ab4:	71fb      	strb	r3, [r7, #7]

	W25Q_CS_LOW();
 8001ab6:	f7ff ffdf 	bl	8001a78 <W25Q_CS_LOW>

	SPI_SendData(SPI1, &cmd, 1);
 8001aba:	1dfb      	adds	r3, r7, #7
 8001abc:	2201      	movs	r2, #1
 8001abe:	4619      	mov	r1, r3
 8001ac0:	4804      	ldr	r0, [pc, #16]	@ (8001ad4 <W25Q_WriteEnable+0x28>)
 8001ac2:	f7ff fd2a 	bl	800151a <SPI_SendData>

	W25Q_CS_HIGH();
 8001ac6:	f7ff ffe1 	bl	8001a8c <W25Q_CS_HIGH>
}
 8001aca:	bf00      	nop
 8001acc:	3708      	adds	r7, #8
 8001ace:	46bd      	mov	sp, r7
 8001ad0:	bd80      	pop	{r7, pc}
 8001ad2:	bf00      	nop
 8001ad4:	40013000 	.word	0x40013000

08001ad8 <W25Q_ReadStatus1>:

/* ================= READ STATUS ================= */

uint8_t W25Q_ReadStatus1(void) {
 8001ad8:	b580      	push	{r7, lr}
 8001ada:	b082      	sub	sp, #8
 8001adc:	af00      	add	r7, sp, #0
	uint8_t cmd = W25Q_CMD_READ_STATUS1;
 8001ade:	2305      	movs	r3, #5
 8001ae0:	71fb      	strb	r3, [r7, #7]
	uint8_t status;

	W25Q_CS_LOW();
 8001ae2:	f7ff ffc9 	bl	8001a78 <W25Q_CS_LOW>

	SPI_SendData(SPI1, &cmd, 1);
 8001ae6:	1dfb      	adds	r3, r7, #7
 8001ae8:	2201      	movs	r2, #1
 8001aea:	4619      	mov	r1, r3
 8001aec:	4807      	ldr	r0, [pc, #28]	@ (8001b0c <W25Q_ReadStatus1+0x34>)
 8001aee:	f7ff fd14 	bl	800151a <SPI_SendData>

	SPI_ReceiveData(SPI1, &status, 1);
 8001af2:	1dbb      	adds	r3, r7, #6
 8001af4:	2201      	movs	r2, #1
 8001af6:	4619      	mov	r1, r3
 8001af8:	4804      	ldr	r0, [pc, #16]	@ (8001b0c <W25Q_ReadStatus1+0x34>)
 8001afa:	f7ff fd29 	bl	8001550 <SPI_ReceiveData>

	W25Q_CS_HIGH();
 8001afe:	f7ff ffc5 	bl	8001a8c <W25Q_CS_HIGH>

	return status;
 8001b02:	79bb      	ldrb	r3, [r7, #6]
}
 8001b04:	4618      	mov	r0, r3
 8001b06:	3708      	adds	r7, #8
 8001b08:	46bd      	mov	sp, r7
 8001b0a:	bd80      	pop	{r7, pc}
 8001b0c:	40013000 	.word	0x40013000

08001b10 <W25Q_WaitBusy>:

/* ================= WAIT BUSY ================= */

void W25Q_WaitBusy(void) {
 8001b10:	b580      	push	{r7, lr}
 8001b12:	af00      	add	r7, sp, #0
	while (W25Q_ReadStatus1() & 0x01)
 8001b14:	bf00      	nop
 8001b16:	f7ff ffdf 	bl	8001ad8 <W25Q_ReadStatus1>
 8001b1a:	4603      	mov	r3, r0
 8001b1c:	f003 0301 	and.w	r3, r3, #1
 8001b20:	2b00      	cmp	r3, #0
 8001b22:	d1f8      	bne.n	8001b16 <W25Q_WaitBusy+0x6>
		;
}
 8001b24:	bf00      	nop
 8001b26:	bf00      	nop
 8001b28:	bd80      	pop	{r7, pc}
	...

08001b2c <W25Q_Read>:
	W25Q_CS_HIGH();
}

/* ================= READ DATA ================= */

void W25Q_Read(uint32_t addr, uint8_t *buf, uint32_t len) {
 8001b2c:	b580      	push	{r7, lr}
 8001b2e:	b086      	sub	sp, #24
 8001b30:	af00      	add	r7, sp, #0
 8001b32:	60f8      	str	r0, [r7, #12]
 8001b34:	60b9      	str	r1, [r7, #8]
 8001b36:	607a      	str	r2, [r7, #4]
	uint8_t cmd[4];

	cmd[0] = W25Q_CMD_READ_DATA;
 8001b38:	2303      	movs	r3, #3
 8001b3a:	753b      	strb	r3, [r7, #20]
	cmd[1] = (addr >> 16) & 0xFF;
 8001b3c:	68fb      	ldr	r3, [r7, #12]
 8001b3e:	0c1b      	lsrs	r3, r3, #16
 8001b40:	b2db      	uxtb	r3, r3
 8001b42:	757b      	strb	r3, [r7, #21]
	cmd[2] = (addr >> 8) & 0xFF;
 8001b44:	68fb      	ldr	r3, [r7, #12]
 8001b46:	0a1b      	lsrs	r3, r3, #8
 8001b48:	b2db      	uxtb	r3, r3
 8001b4a:	75bb      	strb	r3, [r7, #22]
	cmd[3] = addr & 0xFF;
 8001b4c:	68fb      	ldr	r3, [r7, #12]
 8001b4e:	b2db      	uxtb	r3, r3
 8001b50:	75fb      	strb	r3, [r7, #23]

	W25Q_CS_LOW();
 8001b52:	f7ff ff91 	bl	8001a78 <W25Q_CS_LOW>

	SPI_SendData(SPI1, cmd, 4);
 8001b56:	f107 0314 	add.w	r3, r7, #20
 8001b5a:	2204      	movs	r2, #4
 8001b5c:	4619      	mov	r1, r3
 8001b5e:	4807      	ldr	r0, [pc, #28]	@ (8001b7c <W25Q_Read+0x50>)
 8001b60:	f7ff fcdb 	bl	800151a <SPI_SendData>

	SPI_ReceiveData(SPI1, buf, len);
 8001b64:	687a      	ldr	r2, [r7, #4]
 8001b66:	68b9      	ldr	r1, [r7, #8]
 8001b68:	4804      	ldr	r0, [pc, #16]	@ (8001b7c <W25Q_Read+0x50>)
 8001b6a:	f7ff fcf1 	bl	8001550 <SPI_ReceiveData>

	W25Q_CS_HIGH();
 8001b6e:	f7ff ff8d 	bl	8001a8c <W25Q_CS_HIGH>
}
 8001b72:	bf00      	nop
 8001b74:	3718      	adds	r7, #24
 8001b76:	46bd      	mov	sp, r7
 8001b78:	bd80      	pop	{r7, pc}
 8001b7a:	bf00      	nop
 8001b7c:	40013000 	.word	0x40013000

08001b80 <W25Q_WritePage>:

/* ================= PAGE WRITE ================= */

void W25Q_WritePage(uint32_t addr, uint8_t *buf, uint16_t len) {
 8001b80:	b580      	push	{r7, lr}
 8001b82:	b086      	sub	sp, #24
 8001b84:	af00      	add	r7, sp, #0
 8001b86:	60f8      	str	r0, [r7, #12]
 8001b88:	60b9      	str	r1, [r7, #8]
 8001b8a:	4613      	mov	r3, r2
 8001b8c:	80fb      	strh	r3, [r7, #6]
	W25Q_WriteEnable();
 8001b8e:	f7ff ff8d 	bl	8001aac <W25Q_WriteEnable>

	uint8_t cmd[4];

	cmd[0] = W25Q_CMD_PAGE_PROGRAM;
 8001b92:	2302      	movs	r3, #2
 8001b94:	753b      	strb	r3, [r7, #20]
	cmd[1] = (addr >> 16) & 0xFF;
 8001b96:	68fb      	ldr	r3, [r7, #12]
 8001b98:	0c1b      	lsrs	r3, r3, #16
 8001b9a:	b2db      	uxtb	r3, r3
 8001b9c:	757b      	strb	r3, [r7, #21]
	cmd[2] = (addr >> 8) & 0xFF;
 8001b9e:	68fb      	ldr	r3, [r7, #12]
 8001ba0:	0a1b      	lsrs	r3, r3, #8
 8001ba2:	b2db      	uxtb	r3, r3
 8001ba4:	75bb      	strb	r3, [r7, #22]
	cmd[3] = addr & 0xFF;
 8001ba6:	68fb      	ldr	r3, [r7, #12]
 8001ba8:	b2db      	uxtb	r3, r3
 8001baa:	75fb      	strb	r3, [r7, #23]

	W25Q_CS_LOW();
 8001bac:	f7ff ff64 	bl	8001a78 <W25Q_CS_LOW>

	SPI_SendData(SPI1, cmd, 4);
 8001bb0:	f107 0314 	add.w	r3, r7, #20
 8001bb4:	2204      	movs	r2, #4
 8001bb6:	4619      	mov	r1, r3
 8001bb8:	4808      	ldr	r0, [pc, #32]	@ (8001bdc <W25Q_WritePage+0x5c>)
 8001bba:	f7ff fcae 	bl	800151a <SPI_SendData>

	SPI_SendData(SPI1, buf, len);
 8001bbe:	88fb      	ldrh	r3, [r7, #6]
 8001bc0:	461a      	mov	r2, r3
 8001bc2:	68b9      	ldr	r1, [r7, #8]
 8001bc4:	4805      	ldr	r0, [pc, #20]	@ (8001bdc <W25Q_WritePage+0x5c>)
 8001bc6:	f7ff fca8 	bl	800151a <SPI_SendData>

	W25Q_CS_HIGH();
 8001bca:	f7ff ff5f 	bl	8001a8c <W25Q_CS_HIGH>

	W25Q_WaitBusy();
 8001bce:	f7ff ff9f 	bl	8001b10 <W25Q_WaitBusy>
}
 8001bd2:	bf00      	nop
 8001bd4:	3718      	adds	r7, #24
 8001bd6:	46bd      	mov	sp, r7
 8001bd8:	bd80      	pop	{r7, pc}
 8001bda:	bf00      	nop
 8001bdc:	40013000 	.word	0x40013000

08001be0 <W25Q_Write>:

/* ================= MULTI PAGE WRITE ================= */

void W25Q_Write(uint32_t addr, uint8_t *buf, uint32_t len) {
 8001be0:	b580      	push	{r7, lr}
 8001be2:	b086      	sub	sp, #24
 8001be4:	af00      	add	r7, sp, #0
 8001be6:	60f8      	str	r0, [r7, #12]
 8001be8:	60b9      	str	r1, [r7, #8]
 8001bea:	607a      	str	r2, [r7, #4]
	while (len > 0) {
 8001bec:	e01e      	b.n	8001c2c <W25Q_Write+0x4c>
		uint16_t chunk;

		chunk = 256 - (addr % 256);
 8001bee:	68fb      	ldr	r3, [r7, #12]
 8001bf0:	b29b      	uxth	r3, r3
 8001bf2:	b2db      	uxtb	r3, r3
 8001bf4:	b29b      	uxth	r3, r3
 8001bf6:	f5c3 7380 	rsb	r3, r3, #256	@ 0x100
 8001bfa:	82fb      	strh	r3, [r7, #22]

		if (chunk > len)
 8001bfc:	8afb      	ldrh	r3, [r7, #22]
 8001bfe:	687a      	ldr	r2, [r7, #4]
 8001c00:	429a      	cmp	r2, r3
 8001c02:	d201      	bcs.n	8001c08 <W25Q_Write+0x28>
			chunk = len;
 8001c04:	687b      	ldr	r3, [r7, #4]
 8001c06:	82fb      	strh	r3, [r7, #22]

		W25Q_WritePage(addr, buf, chunk);
 8001c08:	8afb      	ldrh	r3, [r7, #22]
 8001c0a:	461a      	mov	r2, r3
 8001c0c:	68b9      	ldr	r1, [r7, #8]
 8001c0e:	68f8      	ldr	r0, [r7, #12]
 8001c10:	f7ff ffb6 	bl	8001b80 <W25Q_WritePage>

		addr += chunk;
 8001c14:	8afb      	ldrh	r3, [r7, #22]
 8001c16:	68fa      	ldr	r2, [r7, #12]
 8001c18:	4413      	add	r3, r2
 8001c1a:	60fb      	str	r3, [r7, #12]
		buf += chunk;
 8001c1c:	8afb      	ldrh	r3, [r7, #22]
 8001c1e:	68ba      	ldr	r2, [r7, #8]
 8001c20:	4413      	add	r3, r2
 8001c22:	60bb      	str	r3, [r7, #8]
		len -= chunk;
 8001c24:	8afb      	ldrh	r3, [r7, #22]
 8001c26:	687a      	ldr	r2, [r7, #4]
 8001c28:	1ad3      	subs	r3, r2, r3
 8001c2a:	607b      	str	r3, [r7, #4]
	while (len > 0) {
 8001c2c:	687b      	ldr	r3, [r7, #4]
 8001c2e:	2b00      	cmp	r3, #0
 8001c30:	d1dd      	bne.n	8001bee <W25Q_Write+0xe>
	}
}
 8001c32:	bf00      	nop
 8001c34:	bf00      	nop
 8001c36:	3718      	adds	r7, #24
 8001c38:	46bd      	mov	sp, r7
 8001c3a:	bd80      	pop	{r7, pc}

08001c3c <W25Q_EraseSector>:

/* ================= ERASE SECTOR ================= */

void W25Q_EraseSector(uint32_t addr) {
 8001c3c:	b580      	push	{r7, lr}
 8001c3e:	b084      	sub	sp, #16
 8001c40:	af00      	add	r7, sp, #0
 8001c42:	6078      	str	r0, [r7, #4]
	W25Q_WriteEnable();
 8001c44:	f7ff ff32 	bl	8001aac <W25Q_WriteEnable>

	uint8_t cmd[4];

	cmd[0] = W25Q_CMD_SECTOR_ERASE;
 8001c48:	2320      	movs	r3, #32
 8001c4a:	733b      	strb	r3, [r7, #12]
	cmd[1] = (addr >> 16) & 0xFF;
 8001c4c:	687b      	ldr	r3, [r7, #4]
 8001c4e:	0c1b      	lsrs	r3, r3, #16
 8001c50:	b2db      	uxtb	r3, r3
 8001c52:	737b      	strb	r3, [r7, #13]
	cmd[2] = (addr >> 8) & 0xFF;
 8001c54:	687b      	ldr	r3, [r7, #4]
 8001c56:	0a1b      	lsrs	r3, r3, #8
 8001c58:	b2db      	uxtb	r3, r3
 8001c5a:	73bb      	strb	r3, [r7, #14]
	cmd[3] = addr & 0xFF;
 8001c5c:	687b      	ldr	r3, [r7, #4]
 8001c5e:	b2db      	uxtb	r3, r3
 8001c60:	73fb      	strb	r3, [r7, #15]

	W25Q_CS_LOW();
 8001c62:	f7ff ff09 	bl	8001a78 <W25Q_CS_LOW>

	SPI_SendData(SPI1, cmd, 4);
 8001c66:	f107 030c 	add.w	r3, r7, #12
 8001c6a:	2204      	movs	r2, #4
 8001c6c:	4619      	mov	r1, r3
 8001c6e:	4805      	ldr	r0, [pc, #20]	@ (8001c84 <W25Q_EraseSector+0x48>)
 8001c70:	f7ff fc53 	bl	800151a <SPI_SendData>

	W25Q_CS_HIGH();
 8001c74:	f7ff ff0a 	bl	8001a8c <W25Q_CS_HIGH>

	W25Q_WaitBusy();
 8001c78:	f7ff ff4a 	bl	8001b10 <W25Q_WaitBusy>
}
 8001c7c:	bf00      	nop
 8001c7e:	3710      	adds	r7, #16
 8001c80:	46bd      	mov	sp, r7
 8001c82:	bd80      	pop	{r7, pc}
 8001c84:	40013000 	.word	0x40013000

08001c88 <Reset_Handler>:

  .section .text.Reset_Handler
  .weak Reset_Handler
  .type Reset_Handler, %function
Reset_Handler:
  ldr   r0, =_estack
 8001c88:	480d      	ldr	r0, [pc, #52]	@ (8001cc0 <LoopForever+0x2>)
  mov   sp, r0          /* set stack pointer */
 8001c8a:	4685      	mov	sp, r0
/* Call the clock system initialization function.*/
  bl  SystemInit
 8001c8c:	f3af 8000 	nop.w

/* Copy the data segment initializers from flash to SRAM */
  ldr r0, =_sdata
 8001c90:	480c      	ldr	r0, [pc, #48]	@ (8001cc4 <LoopForever+0x6>)
  ldr r1, =_edata
 8001c92:	490d      	ldr	r1, [pc, #52]	@ (8001cc8 <LoopForever+0xa>)
  ldr r2, =_sidata
 8001c94:	4a0d      	ldr	r2, [pc, #52]	@ (8001ccc <LoopForever+0xe>)
  movs r3, #0
 8001c96:	2300      	movs	r3, #0
  b LoopCopyDataInit
 8001c98:	e002      	b.n	8001ca0 <LoopCopyDataInit>

08001c9a <CopyDataInit>:

CopyDataInit:
  ldr r4, [r2, r3]
 8001c9a:	58d4      	ldr	r4, [r2, r3]
  str r4, [r0, r3]
 8001c9c:	50c4      	str	r4, [r0, r3]
  adds r3, r3, #4
 8001c9e:	3304      	adds	r3, #4

08001ca0 <LoopCopyDataInit>:

LoopCopyDataInit:
  adds r4, r0, r3
 8001ca0:	18c4      	adds	r4, r0, r3
  cmp r4, r1
 8001ca2:	428c      	cmp	r4, r1
  bcc CopyDataInit
 8001ca4:	d3f9      	bcc.n	8001c9a <CopyDataInit>

/* Zero fill the bss segment. */
  ldr r2, =_sbss
 8001ca6:	4a0a      	ldr	r2, [pc, #40]	@ (8001cd0 <LoopForever+0x12>)
  ldr r4, =_ebss
 8001ca8:	4c0a      	ldr	r4, [pc, #40]	@ (8001cd4 <LoopForever+0x16>)
  movs r3, #0
 8001caa:	2300      	movs	r3, #0
  b LoopFillZerobss
 8001cac:	e001      	b.n	8001cb2 <LoopFillZerobss>

08001cae <FillZerobss>:

FillZerobss:
  str  r3, [r2]
 8001cae:	6013      	str	r3, [r2, #0]
  adds r2, r2, #4
 8001cb0:	3204      	adds	r2, #4

08001cb2 <LoopFillZerobss>:

LoopFillZerobss:
  cmp r2, r4
 8001cb2:	42a2      	cmp	r2, r4
  bcc FillZerobss
 8001cb4:	d3fb      	bcc.n	8001cae <FillZerobss>


/* Call static constructors */
  bl __libc_init_array
 8001cb6:	f000 fdc3 	bl	8002840 <__libc_init_array>
/* Call the application's entry point.*/

  bl main
 8001cba:	f7ff fd6d 	bl	8001798 <main>

08001cbe <LoopForever>:

LoopForever:
  b LoopForever
 8001cbe:	e7fe      	b.n	8001cbe <LoopForever>
  ldr   r0, =_estack
 8001cc0:	20018000 	.word	0x20018000
  ldr r0, =_sdata
 8001cc4:	20000000 	.word	0x20000000
  ldr r1, =_edata
 8001cc8:	200001c8 	.word	0x200001c8
  ldr r2, =_sidata
 8001ccc:	08004974 	.word	0x08004974
  ldr r2, =_sbss
 8001cd0:	200001c8 	.word	0x200001c8
  ldr r4, =_ebss
 8001cd4:	20000358 	.word	0x20000358

08001cd8 <ADC1_2_IRQHandler>:
 * @retval : None
*/
  .section .text.Default_Handler,"ax",%progbits
Default_Handler:
Infinite_Loop:
  b Infinite_Loop
 8001cd8:	e7fe      	b.n	8001cd8 <ADC1_2_IRQHandler>

08001cda <__cvt>:
 8001cda:	e92d 47ff 	stmdb	sp!, {r0, r1, r2, r3, r4, r5, r6, r7, r8, r9, sl, lr}
 8001cde:	ec57 6b10 	vmov	r6, r7, d0
 8001ce2:	2f00      	cmp	r7, #0
 8001ce4:	460c      	mov	r4, r1
 8001ce6:	4619      	mov	r1, r3
 8001ce8:	463b      	mov	r3, r7
 8001cea:	bfbb      	ittet	lt
 8001cec:	f107 4300 	addlt.w	r3, r7, #2147483648	@ 0x80000000
 8001cf0:	461f      	movlt	r7, r3
 8001cf2:	2300      	movge	r3, #0
 8001cf4:	232d      	movlt	r3, #45	@ 0x2d
 8001cf6:	700b      	strb	r3, [r1, #0]
 8001cf8:	9b0d      	ldr	r3, [sp, #52]	@ 0x34
 8001cfa:	f8dd a030 	ldr.w	sl, [sp, #48]	@ 0x30
 8001cfe:	4691      	mov	r9, r2
 8001d00:	f023 0820 	bic.w	r8, r3, #32
 8001d04:	bfbc      	itt	lt
 8001d06:	4632      	movlt	r2, r6
 8001d08:	4616      	movlt	r6, r2
 8001d0a:	f1b8 0f46 	cmp.w	r8, #70	@ 0x46
 8001d0e:	d005      	beq.n	8001d1c <__cvt+0x42>
 8001d10:	f1b8 0f45 	cmp.w	r8, #69	@ 0x45
 8001d14:	d100      	bne.n	8001d18 <__cvt+0x3e>
 8001d16:	3401      	adds	r4, #1
 8001d18:	2102      	movs	r1, #2
 8001d1a:	e000      	b.n	8001d1e <__cvt+0x44>
 8001d1c:	2103      	movs	r1, #3
 8001d1e:	ab03      	add	r3, sp, #12
 8001d20:	9301      	str	r3, [sp, #4]
 8001d22:	ab02      	add	r3, sp, #8
 8001d24:	9300      	str	r3, [sp, #0]
 8001d26:	ec47 6b10 	vmov	d0, r6, r7
 8001d2a:	4653      	mov	r3, sl
 8001d2c:	4622      	mov	r2, r4
 8001d2e:	f000 fe37 	bl	80029a0 <_dtoa_r>
 8001d32:	f1b8 0f47 	cmp.w	r8, #71	@ 0x47
 8001d36:	4605      	mov	r5, r0
 8001d38:	d119      	bne.n	8001d6e <__cvt+0x94>
 8001d3a:	f019 0f01 	tst.w	r9, #1
 8001d3e:	d00e      	beq.n	8001d5e <__cvt+0x84>
 8001d40:	eb00 0904 	add.w	r9, r0, r4
 8001d44:	2200      	movs	r2, #0
 8001d46:	2300      	movs	r3, #0
 8001d48:	4630      	mov	r0, r6
 8001d4a:	4639      	mov	r1, r7
 8001d4c:	f7fe febc 	bl	8000ac8 <__aeabi_dcmpeq>
 8001d50:	b108      	cbz	r0, 8001d56 <__cvt+0x7c>
 8001d52:	f8cd 900c 	str.w	r9, [sp, #12]
 8001d56:	2230      	movs	r2, #48	@ 0x30
 8001d58:	9b03      	ldr	r3, [sp, #12]
 8001d5a:	454b      	cmp	r3, r9
 8001d5c:	d31e      	bcc.n	8001d9c <__cvt+0xc2>
 8001d5e:	9b03      	ldr	r3, [sp, #12]
 8001d60:	9a0e      	ldr	r2, [sp, #56]	@ 0x38
 8001d62:	1b5b      	subs	r3, r3, r5
 8001d64:	4628      	mov	r0, r5
 8001d66:	6013      	str	r3, [r2, #0]
 8001d68:	b004      	add	sp, #16
 8001d6a:	e8bd 87f0 	ldmia.w	sp!, {r4, r5, r6, r7, r8, r9, sl, pc}
 8001d6e:	f1b8 0f46 	cmp.w	r8, #70	@ 0x46
 8001d72:	eb00 0904 	add.w	r9, r0, r4
 8001d76:	d1e5      	bne.n	8001d44 <__cvt+0x6a>
 8001d78:	7803      	ldrb	r3, [r0, #0]
 8001d7a:	2b30      	cmp	r3, #48	@ 0x30
 8001d7c:	d10a      	bne.n	8001d94 <__cvt+0xba>
 8001d7e:	2200      	movs	r2, #0
 8001d80:	2300      	movs	r3, #0
 8001d82:	4630      	mov	r0, r6
 8001d84:	4639      	mov	r1, r7
 8001d86:	f7fe fe9f 	bl	8000ac8 <__aeabi_dcmpeq>
 8001d8a:	b918      	cbnz	r0, 8001d94 <__cvt+0xba>
 8001d8c:	f1c4 0401 	rsb	r4, r4, #1
 8001d90:	f8ca 4000 	str.w	r4, [sl]
 8001d94:	f8da 3000 	ldr.w	r3, [sl]
 8001d98:	4499      	add	r9, r3
 8001d9a:	e7d3      	b.n	8001d44 <__cvt+0x6a>
 8001d9c:	1c59      	adds	r1, r3, #1
 8001d9e:	9103      	str	r1, [sp, #12]
 8001da0:	701a      	strb	r2, [r3, #0]
 8001da2:	e7d9      	b.n	8001d58 <__cvt+0x7e>

08001da4 <__exponent>:
 8001da4:	b5f7      	push	{r0, r1, r2, r4, r5, r6, r7, lr}
 8001da6:	2900      	cmp	r1, #0
 8001da8:	bfba      	itte	lt
 8001daa:	4249      	neglt	r1, r1
 8001dac:	232d      	movlt	r3, #45	@ 0x2d
 8001dae:	232b      	movge	r3, #43	@ 0x2b
 8001db0:	2909      	cmp	r1, #9
 8001db2:	7002      	strb	r2, [r0, #0]
 8001db4:	7043      	strb	r3, [r0, #1]
 8001db6:	dd29      	ble.n	8001e0c <__exponent+0x68>
 8001db8:	f10d 0307 	add.w	r3, sp, #7
 8001dbc:	461d      	mov	r5, r3
 8001dbe:	270a      	movs	r7, #10
 8001dc0:	461a      	mov	r2, r3
 8001dc2:	fbb1 f6f7 	udiv	r6, r1, r7
 8001dc6:	fb07 1416 	mls	r4, r7, r6, r1
 8001dca:	3430      	adds	r4, #48	@ 0x30
 8001dcc:	f802 4c01 	strb.w	r4, [r2, #-1]
 8001dd0:	460c      	mov	r4, r1
 8001dd2:	2c63      	cmp	r4, #99	@ 0x63
 8001dd4:	f103 33ff 	add.w	r3, r3, #4294967295
 8001dd8:	4631      	mov	r1, r6
 8001dda:	dcf1      	bgt.n	8001dc0 <__exponent+0x1c>
 8001ddc:	3130      	adds	r1, #48	@ 0x30
 8001dde:	1e94      	subs	r4, r2, #2
 8001de0:	f803 1c01 	strb.w	r1, [r3, #-1]
 8001de4:	1c41      	adds	r1, r0, #1
 8001de6:	4623      	mov	r3, r4
 8001de8:	42ab      	cmp	r3, r5
 8001dea:	d30a      	bcc.n	8001e02 <__exponent+0x5e>
 8001dec:	f10d 0309 	add.w	r3, sp, #9
 8001df0:	1a9b      	subs	r3, r3, r2
 8001df2:	42ac      	cmp	r4, r5
 8001df4:	bf88      	it	hi
 8001df6:	2300      	movhi	r3, #0
 8001df8:	3302      	adds	r3, #2
 8001dfa:	4403      	add	r3, r0
 8001dfc:	1a18      	subs	r0, r3, r0
 8001dfe:	b003      	add	sp, #12
 8001e00:	bdf0      	pop	{r4, r5, r6, r7, pc}
 8001e02:	f813 6b01 	ldrb.w	r6, [r3], #1
 8001e06:	f801 6f01 	strb.w	r6, [r1, #1]!
 8001e0a:	e7ed      	b.n	8001de8 <__exponent+0x44>
 8001e0c:	2330      	movs	r3, #48	@ 0x30
 8001e0e:	3130      	adds	r1, #48	@ 0x30
 8001e10:	7083      	strb	r3, [r0, #2]
 8001e12:	70c1      	strb	r1, [r0, #3]
 8001e14:	1d03      	adds	r3, r0, #4
 8001e16:	e7f1      	b.n	8001dfc <__exponent+0x58>

08001e18 <_printf_float>:
 8001e18:	e92d 4ff0 	stmdb	sp!, {r4, r5, r6, r7, r8, r9, sl, fp, lr}
 8001e1c:	b08d      	sub	sp, #52	@ 0x34
 8001e1e:	460c      	mov	r4, r1
 8001e20:	f8dd 8058 	ldr.w	r8, [sp, #88]	@ 0x58
 8001e24:	4616      	mov	r6, r2
 8001e26:	461f      	mov	r7, r3
 8001e28:	4605      	mov	r5, r0
 8001e2a:	f000 fcb9 	bl	80027a0 <_localeconv_r>
 8001e2e:	6803      	ldr	r3, [r0, #0]
 8001e30:	9304      	str	r3, [sp, #16]
 8001e32:	4618      	mov	r0, r3
 8001e34:	f7fe fa1c 	bl	8000270 <strlen>
 8001e38:	2300      	movs	r3, #0
 8001e3a:	930a      	str	r3, [sp, #40]	@ 0x28
 8001e3c:	f8d8 3000 	ldr.w	r3, [r8]
 8001e40:	9005      	str	r0, [sp, #20]
 8001e42:	3307      	adds	r3, #7
 8001e44:	f023 0307 	bic.w	r3, r3, #7
 8001e48:	f103 0208 	add.w	r2, r3, #8
 8001e4c:	f894 a018 	ldrb.w	sl, [r4, #24]
 8001e50:	f8d4 b000 	ldr.w	fp, [r4]
 8001e54:	f8c8 2000 	str.w	r2, [r8]
 8001e58:	e9d3 8900 	ldrd	r8, r9, [r3]
 8001e5c:	f029 4300 	bic.w	r3, r9, #2147483648	@ 0x80000000
 8001e60:	9307      	str	r3, [sp, #28]
 8001e62:	f8cd 8018 	str.w	r8, [sp, #24]
 8001e66:	e9c4 8912 	strd	r8, r9, [r4, #72]	@ 0x48
 8001e6a:	e9dd 0106 	ldrd	r0, r1, [sp, #24]
 8001e6e:	4b9c      	ldr	r3, [pc, #624]	@ (80020e0 <_printf_float+0x2c8>)
 8001e70:	f04f 32ff 	mov.w	r2, #4294967295
 8001e74:	f7fe fe5a 	bl	8000b2c <__aeabi_dcmpun>
 8001e78:	bb70      	cbnz	r0, 8001ed8 <_printf_float+0xc0>
 8001e7a:	e9dd 0106 	ldrd	r0, r1, [sp, #24]
 8001e7e:	4b98      	ldr	r3, [pc, #608]	@ (80020e0 <_printf_float+0x2c8>)
 8001e80:	f04f 32ff 	mov.w	r2, #4294967295
 8001e84:	f7fe fe34 	bl	8000af0 <__aeabi_dcmple>
 8001e88:	bb30      	cbnz	r0, 8001ed8 <_printf_float+0xc0>
 8001e8a:	2200      	movs	r2, #0
 8001e8c:	2300      	movs	r3, #0
 8001e8e:	4640      	mov	r0, r8
 8001e90:	4649      	mov	r1, r9
 8001e92:	f7fe fe23 	bl	8000adc <__aeabi_dcmplt>
 8001e96:	b110      	cbz	r0, 8001e9e <_printf_float+0x86>
 8001e98:	232d      	movs	r3, #45	@ 0x2d
 8001e9a:	f884 3043 	strb.w	r3, [r4, #67]	@ 0x43
 8001e9e:	4a91      	ldr	r2, [pc, #580]	@ (80020e4 <_printf_float+0x2cc>)
 8001ea0:	4b91      	ldr	r3, [pc, #580]	@ (80020e8 <_printf_float+0x2d0>)
 8001ea2:	f1ba 0f47 	cmp.w	sl, #71	@ 0x47
 8001ea6:	bf8c      	ite	hi
 8001ea8:	4690      	movhi	r8, r2
 8001eaa:	4698      	movls	r8, r3
 8001eac:	2303      	movs	r3, #3
 8001eae:	6123      	str	r3, [r4, #16]
 8001eb0:	f02b 0304 	bic.w	r3, fp, #4
 8001eb4:	6023      	str	r3, [r4, #0]
 8001eb6:	f04f 0900 	mov.w	r9, #0
 8001eba:	9700      	str	r7, [sp, #0]
 8001ebc:	4633      	mov	r3, r6
 8001ebe:	aa0b      	add	r2, sp, #44	@ 0x2c
 8001ec0:	4621      	mov	r1, r4
 8001ec2:	4628      	mov	r0, r5
 8001ec4:	f000 f9d2 	bl	800226c <_printf_common>
 8001ec8:	3001      	adds	r0, #1
 8001eca:	f040 808d 	bne.w	8001fe8 <_printf_float+0x1d0>
 8001ece:	f04f 30ff 	mov.w	r0, #4294967295
 8001ed2:	b00d      	add	sp, #52	@ 0x34
 8001ed4:	e8bd 8ff0 	ldmia.w	sp!, {r4, r5, r6, r7, r8, r9, sl, fp, pc}
 8001ed8:	4642      	mov	r2, r8
 8001eda:	464b      	mov	r3, r9
 8001edc:	4640      	mov	r0, r8
 8001ede:	4649      	mov	r1, r9
 8001ee0:	f7fe fe24 	bl	8000b2c <__aeabi_dcmpun>
 8001ee4:	b140      	cbz	r0, 8001ef8 <_printf_float+0xe0>
 8001ee6:	464b      	mov	r3, r9
 8001ee8:	2b00      	cmp	r3, #0
 8001eea:	bfbc      	itt	lt
 8001eec:	232d      	movlt	r3, #45	@ 0x2d
 8001eee:	f884 3043 	strblt.w	r3, [r4, #67]	@ 0x43
 8001ef2:	4a7e      	ldr	r2, [pc, #504]	@ (80020ec <_printf_float+0x2d4>)
 8001ef4:	4b7e      	ldr	r3, [pc, #504]	@ (80020f0 <_printf_float+0x2d8>)
 8001ef6:	e7d4      	b.n	8001ea2 <_printf_float+0x8a>
 8001ef8:	6863      	ldr	r3, [r4, #4]
 8001efa:	f00a 02df 	and.w	r2, sl, #223	@ 0xdf
 8001efe:	9206      	str	r2, [sp, #24]
 8001f00:	1c5a      	adds	r2, r3, #1
 8001f02:	d13b      	bne.n	8001f7c <_printf_float+0x164>
 8001f04:	2306      	movs	r3, #6
 8001f06:	6063      	str	r3, [r4, #4]
 8001f08:	f44b 6280 	orr.w	r2, fp, #1024	@ 0x400
 8001f0c:	2300      	movs	r3, #0
 8001f0e:	6022      	str	r2, [r4, #0]
 8001f10:	9303      	str	r3, [sp, #12]
 8001f12:	ab0a      	add	r3, sp, #40	@ 0x28
 8001f14:	e9cd a301 	strd	sl, r3, [sp, #4]
 8001f18:	ab09      	add	r3, sp, #36	@ 0x24
 8001f1a:	9300      	str	r3, [sp, #0]
 8001f1c:	6861      	ldr	r1, [r4, #4]
 8001f1e:	ec49 8b10 	vmov	d0, r8, r9
 8001f22:	f10d 0323 	add.w	r3, sp, #35	@ 0x23
 8001f26:	4628      	mov	r0, r5
 8001f28:	f7ff fed7 	bl	8001cda <__cvt>
 8001f2c:	9b06      	ldr	r3, [sp, #24]
 8001f2e:	9909      	ldr	r1, [sp, #36]	@ 0x24
 8001f30:	2b47      	cmp	r3, #71	@ 0x47
 8001f32:	4680      	mov	r8, r0
 8001f34:	d129      	bne.n	8001f8a <_printf_float+0x172>
 8001f36:	1cc8      	adds	r0, r1, #3
 8001f38:	db02      	blt.n	8001f40 <_printf_float+0x128>
 8001f3a:	6863      	ldr	r3, [r4, #4]
 8001f3c:	4299      	cmp	r1, r3
 8001f3e:	dd41      	ble.n	8001fc4 <_printf_float+0x1ac>
 8001f40:	f1aa 0a02 	sub.w	sl, sl, #2
 8001f44:	fa5f fa8a 	uxtb.w	sl, sl
 8001f48:	3901      	subs	r1, #1
 8001f4a:	4652      	mov	r2, sl
 8001f4c:	f104 0050 	add.w	r0, r4, #80	@ 0x50
 8001f50:	9109      	str	r1, [sp, #36]	@ 0x24
 8001f52:	f7ff ff27 	bl	8001da4 <__exponent>
 8001f56:	9a0a      	ldr	r2, [sp, #40]	@ 0x28
 8001f58:	1813      	adds	r3, r2, r0
 8001f5a:	2a01      	cmp	r2, #1
 8001f5c:	4681      	mov	r9, r0
 8001f5e:	6123      	str	r3, [r4, #16]
 8001f60:	dc02      	bgt.n	8001f68 <_printf_float+0x150>
 8001f62:	6822      	ldr	r2, [r4, #0]
 8001f64:	07d2      	lsls	r2, r2, #31
 8001f66:	d501      	bpl.n	8001f6c <_printf_float+0x154>
 8001f68:	3301      	adds	r3, #1
 8001f6a:	6123      	str	r3, [r4, #16]
 8001f6c:	f89d 3023 	ldrb.w	r3, [sp, #35]	@ 0x23
 8001f70:	2b00      	cmp	r3, #0
 8001f72:	d0a2      	beq.n	8001eba <_printf_float+0xa2>
 8001f74:	232d      	movs	r3, #45	@ 0x2d
 8001f76:	f884 3043 	strb.w	r3, [r4, #67]	@ 0x43
 8001f7a:	e79e      	b.n	8001eba <_printf_float+0xa2>
 8001f7c:	9a06      	ldr	r2, [sp, #24]
 8001f7e:	2a47      	cmp	r2, #71	@ 0x47
 8001f80:	d1c2      	bne.n	8001f08 <_printf_float+0xf0>
 8001f82:	2b00      	cmp	r3, #0
 8001f84:	d1c0      	bne.n	8001f08 <_printf_float+0xf0>
 8001f86:	2301      	movs	r3, #1
 8001f88:	e7bd      	b.n	8001f06 <_printf_float+0xee>
 8001f8a:	f1ba 0f65 	cmp.w	sl, #101	@ 0x65
 8001f8e:	d9db      	bls.n	8001f48 <_printf_float+0x130>
 8001f90:	f1ba 0f66 	cmp.w	sl, #102	@ 0x66
 8001f94:	d118      	bne.n	8001fc8 <_printf_float+0x1b0>
 8001f96:	2900      	cmp	r1, #0
 8001f98:	6863      	ldr	r3, [r4, #4]
 8001f9a:	dd0b      	ble.n	8001fb4 <_printf_float+0x19c>
 8001f9c:	6121      	str	r1, [r4, #16]
 8001f9e:	b913      	cbnz	r3, 8001fa6 <_printf_float+0x18e>
 8001fa0:	6822      	ldr	r2, [r4, #0]
 8001fa2:	07d0      	lsls	r0, r2, #31
 8001fa4:	d502      	bpl.n	8001fac <_printf_float+0x194>
 8001fa6:	3301      	adds	r3, #1
 8001fa8:	440b      	add	r3, r1
 8001faa:	6123      	str	r3, [r4, #16]
 8001fac:	65a1      	str	r1, [r4, #88]	@ 0x58
 8001fae:	f04f 0900 	mov.w	r9, #0
 8001fb2:	e7db      	b.n	8001f6c <_printf_float+0x154>
 8001fb4:	b913      	cbnz	r3, 8001fbc <_printf_float+0x1a4>
 8001fb6:	6822      	ldr	r2, [r4, #0]
 8001fb8:	07d2      	lsls	r2, r2, #31
 8001fba:	d501      	bpl.n	8001fc0 <_printf_float+0x1a8>
 8001fbc:	3302      	adds	r3, #2
 8001fbe:	e7f4      	b.n	8001faa <_printf_float+0x192>
 8001fc0:	2301      	movs	r3, #1
 8001fc2:	e7f2      	b.n	8001faa <_printf_float+0x192>
 8001fc4:	f04f 0a67 	mov.w	sl, #103	@ 0x67
 8001fc8:	9b0a      	ldr	r3, [sp, #40]	@ 0x28
 8001fca:	4299      	cmp	r1, r3
 8001fcc:	db05      	blt.n	8001fda <_printf_float+0x1c2>
 8001fce:	6823      	ldr	r3, [r4, #0]
 8001fd0:	6121      	str	r1, [r4, #16]
 8001fd2:	07d8      	lsls	r0, r3, #31
 8001fd4:	d5ea      	bpl.n	8001fac <_printf_float+0x194>
 8001fd6:	1c4b      	adds	r3, r1, #1
 8001fd8:	e7e7      	b.n	8001faa <_printf_float+0x192>
 8001fda:	2900      	cmp	r1, #0
 8001fdc:	bfd4      	ite	le
 8001fde:	f1c1 0202 	rsble	r2, r1, #2
 8001fe2:	2201      	movgt	r2, #1
 8001fe4:	4413      	add	r3, r2
 8001fe6:	e7e0      	b.n	8001faa <_printf_float+0x192>
 8001fe8:	6823      	ldr	r3, [r4, #0]
 8001fea:	055a      	lsls	r2, r3, #21
 8001fec:	d407      	bmi.n	8001ffe <_printf_float+0x1e6>
 8001fee:	6923      	ldr	r3, [r4, #16]
 8001ff0:	4642      	mov	r2, r8
 8001ff2:	4631      	mov	r1, r6
 8001ff4:	4628      	mov	r0, r5
 8001ff6:	47b8      	blx	r7
 8001ff8:	3001      	adds	r0, #1
 8001ffa:	d12b      	bne.n	8002054 <_printf_float+0x23c>
 8001ffc:	e767      	b.n	8001ece <_printf_float+0xb6>
 8001ffe:	f1ba 0f65 	cmp.w	sl, #101	@ 0x65
 8002002:	f240 80dd 	bls.w	80021c0 <_printf_float+0x3a8>
 8002006:	e9d4 0112 	ldrd	r0, r1, [r4, #72]	@ 0x48
 800200a:	2200      	movs	r2, #0
 800200c:	2300      	movs	r3, #0
 800200e:	f7fe fd5b 	bl	8000ac8 <__aeabi_dcmpeq>
 8002012:	2800      	cmp	r0, #0
 8002014:	d033      	beq.n	800207e <_printf_float+0x266>
 8002016:	4a37      	ldr	r2, [pc, #220]	@ (80020f4 <_printf_float+0x2dc>)
 8002018:	2301      	movs	r3, #1
 800201a:	4631      	mov	r1, r6
 800201c:	4628      	mov	r0, r5
 800201e:	47b8      	blx	r7
 8002020:	3001      	adds	r0, #1
 8002022:	f43f af54 	beq.w	8001ece <_printf_float+0xb6>
 8002026:	e9dd 3809 	ldrd	r3, r8, [sp, #36]	@ 0x24
 800202a:	4543      	cmp	r3, r8
 800202c:	db02      	blt.n	8002034 <_printf_float+0x21c>
 800202e:	6823      	ldr	r3, [r4, #0]
 8002030:	07d8      	lsls	r0, r3, #31
 8002032:	d50f      	bpl.n	8002054 <_printf_float+0x23c>
 8002034:	e9dd 2304 	ldrd	r2, r3, [sp, #16]
 8002038:	4631      	mov	r1, r6
 800203a:	4628      	mov	r0, r5
 800203c:	47b8      	blx	r7
 800203e:	3001      	adds	r0, #1
 8002040:	f43f af45 	beq.w	8001ece <_printf_float+0xb6>
 8002044:	f04f 0900 	mov.w	r9, #0
 8002048:	f108 38ff 	add.w	r8, r8, #4294967295
 800204c:	f104 0a1a 	add.w	sl, r4, #26
 8002050:	45c8      	cmp	r8, r9
 8002052:	dc09      	bgt.n	8002068 <_printf_float+0x250>
 8002054:	6823      	ldr	r3, [r4, #0]
 8002056:	079b      	lsls	r3, r3, #30
 8002058:	f100 8103 	bmi.w	8002262 <_printf_float+0x44a>
 800205c:	68e0      	ldr	r0, [r4, #12]
 800205e:	9b0b      	ldr	r3, [sp, #44]	@ 0x2c
 8002060:	4298      	cmp	r0, r3
 8002062:	bfb8      	it	lt
 8002064:	4618      	movlt	r0, r3
 8002066:	e734      	b.n	8001ed2 <_printf_float+0xba>
 8002068:	2301      	movs	r3, #1
 800206a:	4652      	mov	r2, sl
 800206c:	4631      	mov	r1, r6
 800206e:	4628      	mov	r0, r5
 8002070:	47b8      	blx	r7
 8002072:	3001      	adds	r0, #1
 8002074:	f43f af2b 	beq.w	8001ece <_printf_float+0xb6>
 8002078:	f109 0901 	add.w	r9, r9, #1
 800207c:	e7e8      	b.n	8002050 <_printf_float+0x238>
 800207e:	9b09      	ldr	r3, [sp, #36]	@ 0x24
 8002080:	2b00      	cmp	r3, #0
 8002082:	dc39      	bgt.n	80020f8 <_printf_float+0x2e0>
 8002084:	4a1b      	ldr	r2, [pc, #108]	@ (80020f4 <_printf_float+0x2dc>)
 8002086:	2301      	movs	r3, #1
 8002088:	4631      	mov	r1, r6
 800208a:	4628      	mov	r0, r5
 800208c:	47b8      	blx	r7
 800208e:	3001      	adds	r0, #1
 8002090:	f43f af1d 	beq.w	8001ece <_printf_float+0xb6>
 8002094:	e9dd 3909 	ldrd	r3, r9, [sp, #36]	@ 0x24
 8002098:	ea59 0303 	orrs.w	r3, r9, r3
 800209c:	d102      	bne.n	80020a4 <_printf_float+0x28c>
 800209e:	6823      	ldr	r3, [r4, #0]
 80020a0:	07d9      	lsls	r1, r3, #31
 80020a2:	d5d7      	bpl.n	8002054 <_printf_float+0x23c>
 80020a4:	e9dd 2304 	ldrd	r2, r3, [sp, #16]
 80020a8:	4631      	mov	r1, r6
 80020aa:	4628      	mov	r0, r5
 80020ac:	47b8      	blx	r7
 80020ae:	3001      	adds	r0, #1
 80020b0:	f43f af0d 	beq.w	8001ece <_printf_float+0xb6>
 80020b4:	f04f 0a00 	mov.w	sl, #0
 80020b8:	f104 0b1a 	add.w	fp, r4, #26
 80020bc:	9b09      	ldr	r3, [sp, #36]	@ 0x24
 80020be:	425b      	negs	r3, r3
 80020c0:	4553      	cmp	r3, sl
 80020c2:	dc01      	bgt.n	80020c8 <_printf_float+0x2b0>
 80020c4:	464b      	mov	r3, r9
 80020c6:	e793      	b.n	8001ff0 <_printf_float+0x1d8>
 80020c8:	2301      	movs	r3, #1
 80020ca:	465a      	mov	r2, fp
 80020cc:	4631      	mov	r1, r6
 80020ce:	4628      	mov	r0, r5
 80020d0:	47b8      	blx	r7
 80020d2:	3001      	adds	r0, #1
 80020d4:	f43f aefb 	beq.w	8001ece <_printf_float+0xb6>
 80020d8:	f10a 0a01 	add.w	sl, sl, #1
 80020dc:	e7ee      	b.n	80020bc <_printf_float+0x2a4>
 80020de:	bf00      	nop
 80020e0:	7fefffff 	.word	0x7fefffff
 80020e4:	080045f4 	.word	0x080045f4
 80020e8:	080045f0 	.word	0x080045f0
 80020ec:	080045fc 	.word	0x080045fc
 80020f0:	080045f8 	.word	0x080045f8
 80020f4:	08004600 	.word	0x08004600
 80020f8:	6da3      	ldr	r3, [r4, #88]	@ 0x58
 80020fa:	f8dd a028 	ldr.w	sl, [sp, #40]	@ 0x28
 80020fe:	4553      	cmp	r3, sl
 8002100:	bfa8      	it	ge
 8002102:	4653      	movge	r3, sl
 8002104:	2b00      	cmp	r3, #0
 8002106:	4699      	mov	r9, r3
 8002108:	dc36      	bgt.n	8002178 <_printf_float+0x360>
 800210a:	f04f 0b00 	mov.w	fp, #0
 800210e:	ea29 79e9 	bic.w	r9, r9, r9, asr #31
 8002112:	f104 021a 	add.w	r2, r4, #26
 8002116:	6da3      	ldr	r3, [r4, #88]	@ 0x58
 8002118:	9306      	str	r3, [sp, #24]
 800211a:	eba3 0309 	sub.w	r3, r3, r9
 800211e:	455b      	cmp	r3, fp
 8002120:	dc31      	bgt.n	8002186 <_printf_float+0x36e>
 8002122:	9b09      	ldr	r3, [sp, #36]	@ 0x24
 8002124:	459a      	cmp	sl, r3
 8002126:	dc3a      	bgt.n	800219e <_printf_float+0x386>
 8002128:	6823      	ldr	r3, [r4, #0]
 800212a:	07da      	lsls	r2, r3, #31
 800212c:	d437      	bmi.n	800219e <_printf_float+0x386>
 800212e:	9b09      	ldr	r3, [sp, #36]	@ 0x24
 8002130:	ebaa 0903 	sub.w	r9, sl, r3
 8002134:	9b06      	ldr	r3, [sp, #24]
 8002136:	ebaa 0303 	sub.w	r3, sl, r3
 800213a:	4599      	cmp	r9, r3
 800213c:	bfa8      	it	ge
 800213e:	4699      	movge	r9, r3
 8002140:	f1b9 0f00 	cmp.w	r9, #0
 8002144:	dc33      	bgt.n	80021ae <_printf_float+0x396>
 8002146:	f04f 0800 	mov.w	r8, #0
 800214a:	ea29 79e9 	bic.w	r9, r9, r9, asr #31
 800214e:	f104 0b1a 	add.w	fp, r4, #26
 8002152:	9b09      	ldr	r3, [sp, #36]	@ 0x24
 8002154:	ebaa 0303 	sub.w	r3, sl, r3
 8002158:	eba3 0309 	sub.w	r3, r3, r9
 800215c:	4543      	cmp	r3, r8
 800215e:	f77f af79 	ble.w	8002054 <_printf_float+0x23c>
 8002162:	2301      	movs	r3, #1
 8002164:	465a      	mov	r2, fp
 8002166:	4631      	mov	r1, r6
 8002168:	4628      	mov	r0, r5
 800216a:	47b8      	blx	r7
 800216c:	3001      	adds	r0, #1
 800216e:	f43f aeae 	beq.w	8001ece <_printf_float+0xb6>
 8002172:	f108 0801 	add.w	r8, r8, #1
 8002176:	e7ec      	b.n	8002152 <_printf_float+0x33a>
 8002178:	4642      	mov	r2, r8
 800217a:	4631      	mov	r1, r6
 800217c:	4628      	mov	r0, r5
 800217e:	47b8      	blx	r7
 8002180:	3001      	adds	r0, #1
 8002182:	d1c2      	bne.n	800210a <_printf_float+0x2f2>
 8002184:	e6a3      	b.n	8001ece <_printf_float+0xb6>
 8002186:	2301      	movs	r3, #1
 8002188:	4631      	mov	r1, r6
 800218a:	4628      	mov	r0, r5
 800218c:	9206      	str	r2, [sp, #24]
 800218e:	47b8      	blx	r7
 8002190:	3001      	adds	r0, #1
 8002192:	f43f ae9c 	beq.w	8001ece <_printf_float+0xb6>
 8002196:	9a06      	ldr	r2, [sp, #24]
 8002198:	f10b 0b01 	add.w	fp, fp, #1
 800219c:	e7bb      	b.n	8002116 <_printf_float+0x2fe>
 800219e:	e9dd 2304 	ldrd	r2, r3, [sp, #16]
 80021a2:	4631      	mov	r1, r6
 80021a4:	4628      	mov	r0, r5
 80021a6:	47b8      	blx	r7
 80021a8:	3001      	adds	r0, #1
 80021aa:	d1c0      	bne.n	800212e <_printf_float+0x316>
 80021ac:	e68f      	b.n	8001ece <_printf_float+0xb6>
 80021ae:	9a06      	ldr	r2, [sp, #24]
 80021b0:	464b      	mov	r3, r9
 80021b2:	4442      	add	r2, r8
 80021b4:	4631      	mov	r1, r6
 80021b6:	4628      	mov	r0, r5
 80021b8:	47b8      	blx	r7
 80021ba:	3001      	adds	r0, #1
 80021bc:	d1c3      	bne.n	8002146 <_printf_float+0x32e>
 80021be:	e686      	b.n	8001ece <_printf_float+0xb6>
 80021c0:	f8dd a028 	ldr.w	sl, [sp, #40]	@ 0x28
 80021c4:	f1ba 0f01 	cmp.w	sl, #1
 80021c8:	dc01      	bgt.n	80021ce <_printf_float+0x3b6>
 80021ca:	07db      	lsls	r3, r3, #31
 80021cc:	d536      	bpl.n	800223c <_printf_float+0x424>
 80021ce:	2301      	movs	r3, #1
 80021d0:	4642      	mov	r2, r8
 80021d2:	4631      	mov	r1, r6
 80021d4:	4628      	mov	r0, r5
 80021d6:	47b8      	blx	r7
 80021d8:	3001      	adds	r0, #1
 80021da:	f43f ae78 	beq.w	8001ece <_printf_float+0xb6>
 80021de:	e9dd 2304 	ldrd	r2, r3, [sp, #16]
 80021e2:	4631      	mov	r1, r6
 80021e4:	4628      	mov	r0, r5
 80021e6:	47b8      	blx	r7
 80021e8:	3001      	adds	r0, #1
 80021ea:	f43f ae70 	beq.w	8001ece <_printf_float+0xb6>
 80021ee:	e9d4 0112 	ldrd	r0, r1, [r4, #72]	@ 0x48
 80021f2:	2200      	movs	r2, #0
 80021f4:	2300      	movs	r3, #0
 80021f6:	f10a 3aff 	add.w	sl, sl, #4294967295
 80021fa:	f7fe fc65 	bl	8000ac8 <__aeabi_dcmpeq>
 80021fe:	b9c0      	cbnz	r0, 8002232 <_printf_float+0x41a>
 8002200:	4653      	mov	r3, sl
 8002202:	f108 0201 	add.w	r2, r8, #1
 8002206:	4631      	mov	r1, r6
 8002208:	4628      	mov	r0, r5
 800220a:	47b8      	blx	r7
 800220c:	3001      	adds	r0, #1
 800220e:	d10c      	bne.n	800222a <_printf_float+0x412>
 8002210:	e65d      	b.n	8001ece <_printf_float+0xb6>
 8002212:	2301      	movs	r3, #1
 8002214:	465a      	mov	r2, fp
 8002216:	4631      	mov	r1, r6
 8002218:	4628      	mov	r0, r5
 800221a:	47b8      	blx	r7
 800221c:	3001      	adds	r0, #1
 800221e:	f43f ae56 	beq.w	8001ece <_printf_float+0xb6>
 8002222:	f108 0801 	add.w	r8, r8, #1
 8002226:	45d0      	cmp	r8, sl
 8002228:	dbf3      	blt.n	8002212 <_printf_float+0x3fa>
 800222a:	464b      	mov	r3, r9
 800222c:	f104 0250 	add.w	r2, r4, #80	@ 0x50
 8002230:	e6df      	b.n	8001ff2 <_printf_float+0x1da>
 8002232:	f04f 0800 	mov.w	r8, #0
 8002236:	f104 0b1a 	add.w	fp, r4, #26
 800223a:	e7f4      	b.n	8002226 <_printf_float+0x40e>
 800223c:	2301      	movs	r3, #1
 800223e:	4642      	mov	r2, r8
 8002240:	e7e1      	b.n	8002206 <_printf_float+0x3ee>
 8002242:	2301      	movs	r3, #1
 8002244:	464a      	mov	r2, r9
 8002246:	4631      	mov	r1, r6
 8002248:	4628      	mov	r0, r5
 800224a:	47b8      	blx	r7
 800224c:	3001      	adds	r0, #1
 800224e:	f43f ae3e 	beq.w	8001ece <_printf_float+0xb6>
 8002252:	f108 0801 	add.w	r8, r8, #1
 8002256:	68e3      	ldr	r3, [r4, #12]
 8002258:	990b      	ldr	r1, [sp, #44]	@ 0x2c
 800225a:	1a5b      	subs	r3, r3, r1
 800225c:	4543      	cmp	r3, r8
 800225e:	dcf0      	bgt.n	8002242 <_printf_float+0x42a>
 8002260:	e6fc      	b.n	800205c <_printf_float+0x244>
 8002262:	f04f 0800 	mov.w	r8, #0
 8002266:	f104 0919 	add.w	r9, r4, #25
 800226a:	e7f4      	b.n	8002256 <_printf_float+0x43e>

0800226c <_printf_common>:
 800226c:	e92d 47f0 	stmdb	sp!, {r4, r5, r6, r7, r8, r9, sl, lr}
 8002270:	4616      	mov	r6, r2
 8002272:	4698      	mov	r8, r3
 8002274:	688a      	ldr	r2, [r1, #8]
 8002276:	690b      	ldr	r3, [r1, #16]
 8002278:	f8dd 9020 	ldr.w	r9, [sp, #32]
 800227c:	4293      	cmp	r3, r2
 800227e:	bfb8      	it	lt
 8002280:	4613      	movlt	r3, r2
 8002282:	6033      	str	r3, [r6, #0]
 8002284:	f891 2043 	ldrb.w	r2, [r1, #67]	@ 0x43
 8002288:	4607      	mov	r7, r0
 800228a:	460c      	mov	r4, r1
 800228c:	b10a      	cbz	r2, 8002292 <_printf_common+0x26>
 800228e:	3301      	adds	r3, #1
 8002290:	6033      	str	r3, [r6, #0]
 8002292:	6823      	ldr	r3, [r4, #0]
 8002294:	0699      	lsls	r1, r3, #26
 8002296:	bf42      	ittt	mi
 8002298:	6833      	ldrmi	r3, [r6, #0]
 800229a:	3302      	addmi	r3, #2
 800229c:	6033      	strmi	r3, [r6, #0]
 800229e:	6825      	ldr	r5, [r4, #0]
 80022a0:	f015 0506 	ands.w	r5, r5, #6
 80022a4:	d106      	bne.n	80022b4 <_printf_common+0x48>
 80022a6:	f104 0a19 	add.w	sl, r4, #25
 80022aa:	68e3      	ldr	r3, [r4, #12]
 80022ac:	6832      	ldr	r2, [r6, #0]
 80022ae:	1a9b      	subs	r3, r3, r2
 80022b0:	42ab      	cmp	r3, r5
 80022b2:	dc26      	bgt.n	8002302 <_printf_common+0x96>
 80022b4:	f894 3043 	ldrb.w	r3, [r4, #67]	@ 0x43
 80022b8:	6822      	ldr	r2, [r4, #0]
 80022ba:	3b00      	subs	r3, #0
 80022bc:	bf18      	it	ne
 80022be:	2301      	movne	r3, #1
 80022c0:	0692      	lsls	r2, r2, #26
 80022c2:	d42b      	bmi.n	800231c <_printf_common+0xb0>
 80022c4:	f104 0243 	add.w	r2, r4, #67	@ 0x43
 80022c8:	4641      	mov	r1, r8
 80022ca:	4638      	mov	r0, r7
 80022cc:	47c8      	blx	r9
 80022ce:	3001      	adds	r0, #1
 80022d0:	d01e      	beq.n	8002310 <_printf_common+0xa4>
 80022d2:	6823      	ldr	r3, [r4, #0]
 80022d4:	6922      	ldr	r2, [r4, #16]
 80022d6:	f003 0306 	and.w	r3, r3, #6
 80022da:	2b04      	cmp	r3, #4
 80022dc:	bf02      	ittt	eq
 80022de:	68e5      	ldreq	r5, [r4, #12]
 80022e0:	6833      	ldreq	r3, [r6, #0]
 80022e2:	1aed      	subeq	r5, r5, r3
 80022e4:	68a3      	ldr	r3, [r4, #8]
 80022e6:	bf0c      	ite	eq
 80022e8:	ea25 75e5 	biceq.w	r5, r5, r5, asr #31
 80022ec:	2500      	movne	r5, #0
 80022ee:	4293      	cmp	r3, r2
 80022f0:	bfc4      	itt	gt
 80022f2:	1a9b      	subgt	r3, r3, r2
 80022f4:	18ed      	addgt	r5, r5, r3
 80022f6:	2600      	movs	r6, #0
 80022f8:	341a      	adds	r4, #26
 80022fa:	42b5      	cmp	r5, r6
 80022fc:	d11a      	bne.n	8002334 <_printf_common+0xc8>
 80022fe:	2000      	movs	r0, #0
 8002300:	e008      	b.n	8002314 <_printf_common+0xa8>
 8002302:	2301      	movs	r3, #1
 8002304:	4652      	mov	r2, sl
 8002306:	4641      	mov	r1, r8
 8002308:	4638      	mov	r0, r7
 800230a:	47c8      	blx	r9
 800230c:	3001      	adds	r0, #1
 800230e:	d103      	bne.n	8002318 <_printf_common+0xac>
 8002310:	f04f 30ff 	mov.w	r0, #4294967295
 8002314:	e8bd 87f0 	ldmia.w	sp!, {r4, r5, r6, r7, r8, r9, sl, pc}
 8002318:	3501      	adds	r5, #1
 800231a:	e7c6      	b.n	80022aa <_printf_common+0x3e>
 800231c:	18e1      	adds	r1, r4, r3
 800231e:	1c5a      	adds	r2, r3, #1
 8002320:	2030      	movs	r0, #48	@ 0x30
 8002322:	f881 0043 	strb.w	r0, [r1, #67]	@ 0x43
 8002326:	4422      	add	r2, r4
 8002328:	f894 1045 	ldrb.w	r1, [r4, #69]	@ 0x45
 800232c:	f882 1043 	strb.w	r1, [r2, #67]	@ 0x43
 8002330:	3302      	adds	r3, #2
 8002332:	e7c7      	b.n	80022c4 <_printf_common+0x58>
 8002334:	2301      	movs	r3, #1
 8002336:	4622      	mov	r2, r4
 8002338:	4641      	mov	r1, r8
 800233a:	4638      	mov	r0, r7
 800233c:	47c8      	blx	r9
 800233e:	3001      	adds	r0, #1
 8002340:	d0e6      	beq.n	8002310 <_printf_common+0xa4>
 8002342:	3601      	adds	r6, #1
 8002344:	e7d9      	b.n	80022fa <_printf_common+0x8e>
	...

08002348 <_printf_i>:
 8002348:	e92d 47ff 	stmdb	sp!, {r0, r1, r2, r3, r4, r5, r6, r7, r8, r9, sl, lr}
 800234c:	7e0f      	ldrb	r7, [r1, #24]
 800234e:	9e0c      	ldr	r6, [sp, #48]	@ 0x30
 8002350:	2f78      	cmp	r7, #120	@ 0x78
 8002352:	4691      	mov	r9, r2
 8002354:	4680      	mov	r8, r0
 8002356:	460c      	mov	r4, r1
 8002358:	469a      	mov	sl, r3
 800235a:	f101 0243 	add.w	r2, r1, #67	@ 0x43
 800235e:	d807      	bhi.n	8002370 <_printf_i+0x28>
 8002360:	2f62      	cmp	r7, #98	@ 0x62
 8002362:	d80a      	bhi.n	800237a <_printf_i+0x32>
 8002364:	2f00      	cmp	r7, #0
 8002366:	f000 80d1 	beq.w	800250c <_printf_i+0x1c4>
 800236a:	2f58      	cmp	r7, #88	@ 0x58
 800236c:	f000 80b8 	beq.w	80024e0 <_printf_i+0x198>
 8002370:	f104 0642 	add.w	r6, r4, #66	@ 0x42
 8002374:	f884 7042 	strb.w	r7, [r4, #66]	@ 0x42
 8002378:	e03a      	b.n	80023f0 <_printf_i+0xa8>
 800237a:	f1a7 0363 	sub.w	r3, r7, #99	@ 0x63
 800237e:	2b15      	cmp	r3, #21
 8002380:	d8f6      	bhi.n	8002370 <_printf_i+0x28>
 8002382:	a101      	add	r1, pc, #4	@ (adr r1, 8002388 <_printf_i+0x40>)
 8002384:	f851 f023 	ldr.w	pc, [r1, r3, lsl #2]
 8002388:	080023e1 	.word	0x080023e1
 800238c:	080023f5 	.word	0x080023f5
 8002390:	08002371 	.word	0x08002371
 8002394:	08002371 	.word	0x08002371
 8002398:	08002371 	.word	0x08002371
 800239c:	08002371 	.word	0x08002371
 80023a0:	080023f5 	.word	0x080023f5
 80023a4:	08002371 	.word	0x08002371
 80023a8:	08002371 	.word	0x08002371
 80023ac:	08002371 	.word	0x08002371
 80023b0:	08002371 	.word	0x08002371
 80023b4:	080024f3 	.word	0x080024f3
 80023b8:	0800241f 	.word	0x0800241f
 80023bc:	080024ad 	.word	0x080024ad
 80023c0:	08002371 	.word	0x08002371
 80023c4:	08002371 	.word	0x08002371
 80023c8:	08002515 	.word	0x08002515
 80023cc:	08002371 	.word	0x08002371
 80023d0:	0800241f 	.word	0x0800241f
 80023d4:	08002371 	.word	0x08002371
 80023d8:	08002371 	.word	0x08002371
 80023dc:	080024b5 	.word	0x080024b5
 80023e0:	6833      	ldr	r3, [r6, #0]
 80023e2:	1d1a      	adds	r2, r3, #4
 80023e4:	681b      	ldr	r3, [r3, #0]
 80023e6:	6032      	str	r2, [r6, #0]
 80023e8:	f104 0642 	add.w	r6, r4, #66	@ 0x42
 80023ec:	f884 3042 	strb.w	r3, [r4, #66]	@ 0x42
 80023f0:	2301      	movs	r3, #1
 80023f2:	e09c      	b.n	800252e <_printf_i+0x1e6>
 80023f4:	6833      	ldr	r3, [r6, #0]
 80023f6:	6820      	ldr	r0, [r4, #0]
 80023f8:	1d19      	adds	r1, r3, #4
 80023fa:	6031      	str	r1, [r6, #0]
 80023fc:	0606      	lsls	r6, r0, #24
 80023fe:	d501      	bpl.n	8002404 <_printf_i+0xbc>
 8002400:	681d      	ldr	r5, [r3, #0]
 8002402:	e003      	b.n	800240c <_printf_i+0xc4>
 8002404:	0645      	lsls	r5, r0, #25
 8002406:	d5fb      	bpl.n	8002400 <_printf_i+0xb8>
 8002408:	f9b3 5000 	ldrsh.w	r5, [r3]
 800240c:	2d00      	cmp	r5, #0
 800240e:	da03      	bge.n	8002418 <_printf_i+0xd0>
 8002410:	232d      	movs	r3, #45	@ 0x2d
 8002412:	426d      	negs	r5, r5
 8002414:	f884 3043 	strb.w	r3, [r4, #67]	@ 0x43
 8002418:	4858      	ldr	r0, [pc, #352]	@ (800257c <_printf_i+0x234>)
 800241a:	230a      	movs	r3, #10
 800241c:	e011      	b.n	8002442 <_printf_i+0xfa>
 800241e:	6821      	ldr	r1, [r4, #0]
 8002420:	6833      	ldr	r3, [r6, #0]
 8002422:	0608      	lsls	r0, r1, #24
 8002424:	f853 5b04 	ldr.w	r5, [r3], #4
 8002428:	d402      	bmi.n	8002430 <_printf_i+0xe8>
 800242a:	0649      	lsls	r1, r1, #25
 800242c:	bf48      	it	mi
 800242e:	b2ad      	uxthmi	r5, r5
 8002430:	2f6f      	cmp	r7, #111	@ 0x6f
 8002432:	4852      	ldr	r0, [pc, #328]	@ (800257c <_printf_i+0x234>)
 8002434:	6033      	str	r3, [r6, #0]
 8002436:	bf14      	ite	ne
 8002438:	230a      	movne	r3, #10
 800243a:	2308      	moveq	r3, #8
 800243c:	2100      	movs	r1, #0
 800243e:	f884 1043 	strb.w	r1, [r4, #67]	@ 0x43
 8002442:	6866      	ldr	r6, [r4, #4]
 8002444:	60a6      	str	r6, [r4, #8]
 8002446:	2e00      	cmp	r6, #0
 8002448:	db05      	blt.n	8002456 <_printf_i+0x10e>
 800244a:	6821      	ldr	r1, [r4, #0]
 800244c:	432e      	orrs	r6, r5
 800244e:	f021 0104 	bic.w	r1, r1, #4
 8002452:	6021      	str	r1, [r4, #0]
 8002454:	d04b      	beq.n	80024ee <_printf_i+0x1a6>
 8002456:	4616      	mov	r6, r2
 8002458:	fbb5 f1f3 	udiv	r1, r5, r3
 800245c:	fb03 5711 	mls	r7, r3, r1, r5
 8002460:	5dc7      	ldrb	r7, [r0, r7]
 8002462:	f806 7d01 	strb.w	r7, [r6, #-1]!
 8002466:	462f      	mov	r7, r5
 8002468:	42bb      	cmp	r3, r7
 800246a:	460d      	mov	r5, r1
 800246c:	d9f4      	bls.n	8002458 <_printf_i+0x110>
 800246e:	2b08      	cmp	r3, #8
 8002470:	d10b      	bne.n	800248a <_printf_i+0x142>
 8002472:	6823      	ldr	r3, [r4, #0]
 8002474:	07df      	lsls	r7, r3, #31
 8002476:	d508      	bpl.n	800248a <_printf_i+0x142>
 8002478:	6923      	ldr	r3, [r4, #16]
 800247a:	6861      	ldr	r1, [r4, #4]
 800247c:	4299      	cmp	r1, r3
 800247e:	bfde      	ittt	le
 8002480:	2330      	movle	r3, #48	@ 0x30
 8002482:	f806 3c01 	strble.w	r3, [r6, #-1]
 8002486:	f106 36ff 	addle.w	r6, r6, #4294967295
 800248a:	1b92      	subs	r2, r2, r6
 800248c:	6122      	str	r2, [r4, #16]
 800248e:	f8cd a000 	str.w	sl, [sp]
 8002492:	464b      	mov	r3, r9
 8002494:	aa03      	add	r2, sp, #12
 8002496:	4621      	mov	r1, r4
 8002498:	4640      	mov	r0, r8
 800249a:	f7ff fee7 	bl	800226c <_printf_common>
 800249e:	3001      	adds	r0, #1
 80024a0:	d14a      	bne.n	8002538 <_printf_i+0x1f0>
 80024a2:	f04f 30ff 	mov.w	r0, #4294967295
 80024a6:	b004      	add	sp, #16
 80024a8:	e8bd 87f0 	ldmia.w	sp!, {r4, r5, r6, r7, r8, r9, sl, pc}
 80024ac:	6823      	ldr	r3, [r4, #0]
 80024ae:	f043 0320 	orr.w	r3, r3, #32
 80024b2:	6023      	str	r3, [r4, #0]
 80024b4:	4832      	ldr	r0, [pc, #200]	@ (8002580 <_printf_i+0x238>)
 80024b6:	2778      	movs	r7, #120	@ 0x78
 80024b8:	f884 7045 	strb.w	r7, [r4, #69]	@ 0x45
 80024bc:	6823      	ldr	r3, [r4, #0]
 80024be:	6831      	ldr	r1, [r6, #0]
 80024c0:	061f      	lsls	r7, r3, #24
 80024c2:	f851 5b04 	ldr.w	r5, [r1], #4
 80024c6:	d402      	bmi.n	80024ce <_printf_i+0x186>
 80024c8:	065f      	lsls	r7, r3, #25
 80024ca:	bf48      	it	mi
 80024cc:	b2ad      	uxthmi	r5, r5
 80024ce:	6031      	str	r1, [r6, #0]
 80024d0:	07d9      	lsls	r1, r3, #31
 80024d2:	bf44      	itt	mi
 80024d4:	f043 0320 	orrmi.w	r3, r3, #32
 80024d8:	6023      	strmi	r3, [r4, #0]
 80024da:	b11d      	cbz	r5, 80024e4 <_printf_i+0x19c>
 80024dc:	2310      	movs	r3, #16
 80024de:	e7ad      	b.n	800243c <_printf_i+0xf4>
 80024e0:	4826      	ldr	r0, [pc, #152]	@ (800257c <_printf_i+0x234>)
 80024e2:	e7e9      	b.n	80024b8 <_printf_i+0x170>
 80024e4:	6823      	ldr	r3, [r4, #0]
 80024e6:	f023 0320 	bic.w	r3, r3, #32
 80024ea:	6023      	str	r3, [r4, #0]
 80024ec:	e7f6      	b.n	80024dc <_printf_i+0x194>
 80024ee:	4616      	mov	r6, r2
 80024f0:	e7bd      	b.n	800246e <_printf_i+0x126>
 80024f2:	6833      	ldr	r3, [r6, #0]
 80024f4:	6825      	ldr	r5, [r4, #0]
 80024f6:	6961      	ldr	r1, [r4, #20]
 80024f8:	1d18      	adds	r0, r3, #4
 80024fa:	6030      	str	r0, [r6, #0]
 80024fc:	062e      	lsls	r6, r5, #24
 80024fe:	681b      	ldr	r3, [r3, #0]
 8002500:	d501      	bpl.n	8002506 <_printf_i+0x1be>
 8002502:	6019      	str	r1, [r3, #0]
 8002504:	e002      	b.n	800250c <_printf_i+0x1c4>
 8002506:	0668      	lsls	r0, r5, #25
 8002508:	d5fb      	bpl.n	8002502 <_printf_i+0x1ba>
 800250a:	8019      	strh	r1, [r3, #0]
 800250c:	2300      	movs	r3, #0
 800250e:	6123      	str	r3, [r4, #16]
 8002510:	4616      	mov	r6, r2
 8002512:	e7bc      	b.n	800248e <_printf_i+0x146>
 8002514:	6833      	ldr	r3, [r6, #0]
 8002516:	1d1a      	adds	r2, r3, #4
 8002518:	6032      	str	r2, [r6, #0]
 800251a:	681e      	ldr	r6, [r3, #0]
 800251c:	6862      	ldr	r2, [r4, #4]
 800251e:	2100      	movs	r1, #0
 8002520:	4630      	mov	r0, r6
 8002522:	f7fd fe55 	bl	80001d0 <memchr>
 8002526:	b108      	cbz	r0, 800252c <_printf_i+0x1e4>
 8002528:	1b80      	subs	r0, r0, r6
 800252a:	6060      	str	r0, [r4, #4]
 800252c:	6863      	ldr	r3, [r4, #4]
 800252e:	6123      	str	r3, [r4, #16]
 8002530:	2300      	movs	r3, #0
 8002532:	f884 3043 	strb.w	r3, [r4, #67]	@ 0x43
 8002536:	e7aa      	b.n	800248e <_printf_i+0x146>
 8002538:	6923      	ldr	r3, [r4, #16]
 800253a:	4632      	mov	r2, r6
 800253c:	4649      	mov	r1, r9
 800253e:	4640      	mov	r0, r8
 8002540:	47d0      	blx	sl
 8002542:	3001      	adds	r0, #1
 8002544:	d0ad      	beq.n	80024a2 <_printf_i+0x15a>
 8002546:	6823      	ldr	r3, [r4, #0]
 8002548:	079b      	lsls	r3, r3, #30
 800254a:	d413      	bmi.n	8002574 <_printf_i+0x22c>
 800254c:	68e0      	ldr	r0, [r4, #12]
 800254e:	9b03      	ldr	r3, [sp, #12]
 8002550:	4298      	cmp	r0, r3
 8002552:	bfb8      	it	lt
 8002554:	4618      	movlt	r0, r3
 8002556:	e7a6      	b.n	80024a6 <_printf_i+0x15e>
 8002558:	2301      	movs	r3, #1
 800255a:	4632      	mov	r2, r6
 800255c:	4649      	mov	r1, r9
 800255e:	4640      	mov	r0, r8
 8002560:	47d0      	blx	sl
 8002562:	3001      	adds	r0, #1
 8002564:	d09d      	beq.n	80024a2 <_printf_i+0x15a>
 8002566:	3501      	adds	r5, #1
 8002568:	68e3      	ldr	r3, [r4, #12]
 800256a:	9903      	ldr	r1, [sp, #12]
 800256c:	1a5b      	subs	r3, r3, r1
 800256e:	42ab      	cmp	r3, r5
 8002570:	dcf2      	bgt.n	8002558 <_printf_i+0x210>
 8002572:	e7eb      	b.n	800254c <_printf_i+0x204>
 8002574:	2500      	movs	r5, #0
 8002576:	f104 0619 	add.w	r6, r4, #25
 800257a:	e7f5      	b.n	8002568 <_printf_i+0x220>
 800257c:	08004602 	.word	0x08004602
 8002580:	08004613 	.word	0x08004613

08002584 <std>:
 8002584:	2300      	movs	r3, #0
 8002586:	b510      	push	{r4, lr}
 8002588:	4604      	mov	r4, r0
 800258a:	e9c0 3300 	strd	r3, r3, [r0]
 800258e:	e9c0 3304 	strd	r3, r3, [r0, #16]
 8002592:	6083      	str	r3, [r0, #8]
 8002594:	8181      	strh	r1, [r0, #12]
 8002596:	6643      	str	r3, [r0, #100]	@ 0x64
 8002598:	81c2      	strh	r2, [r0, #14]
 800259a:	6183      	str	r3, [r0, #24]
 800259c:	4619      	mov	r1, r3
 800259e:	2208      	movs	r2, #8
 80025a0:	305c      	adds	r0, #92	@ 0x5c
 80025a2:	f000 f8f4 	bl	800278e <memset>
 80025a6:	4b0d      	ldr	r3, [pc, #52]	@ (80025dc <std+0x58>)
 80025a8:	6263      	str	r3, [r4, #36]	@ 0x24
 80025aa:	4b0d      	ldr	r3, [pc, #52]	@ (80025e0 <std+0x5c>)
 80025ac:	62a3      	str	r3, [r4, #40]	@ 0x28
 80025ae:	4b0d      	ldr	r3, [pc, #52]	@ (80025e4 <std+0x60>)
 80025b0:	62e3      	str	r3, [r4, #44]	@ 0x2c
 80025b2:	4b0d      	ldr	r3, [pc, #52]	@ (80025e8 <std+0x64>)
 80025b4:	6323      	str	r3, [r4, #48]	@ 0x30
 80025b6:	4b0d      	ldr	r3, [pc, #52]	@ (80025ec <std+0x68>)
 80025b8:	6224      	str	r4, [r4, #32]
 80025ba:	429c      	cmp	r4, r3
 80025bc:	d006      	beq.n	80025cc <std+0x48>
 80025be:	f103 0268 	add.w	r2, r3, #104	@ 0x68
 80025c2:	4294      	cmp	r4, r2
 80025c4:	d002      	beq.n	80025cc <std+0x48>
 80025c6:	33d0      	adds	r3, #208	@ 0xd0
 80025c8:	429c      	cmp	r4, r3
 80025ca:	d105      	bne.n	80025d8 <std+0x54>
 80025cc:	f104 0058 	add.w	r0, r4, #88	@ 0x58
 80025d0:	e8bd 4010 	ldmia.w	sp!, {r4, lr}
 80025d4:	f000 b958 	b.w	8002888 <__retarget_lock_init_recursive>
 80025d8:	bd10      	pop	{r4, pc}
 80025da:	bf00      	nop
 80025dc:	08002709 	.word	0x08002709
 80025e0:	0800272b 	.word	0x0800272b
 80025e4:	08002763 	.word	0x08002763
 80025e8:	08002787 	.word	0x08002787
 80025ec:	2000020c 	.word	0x2000020c

080025f0 <stdio_exit_handler>:
 80025f0:	4a02      	ldr	r2, [pc, #8]	@ (80025fc <stdio_exit_handler+0xc>)
 80025f2:	4903      	ldr	r1, [pc, #12]	@ (8002600 <stdio_exit_handler+0x10>)
 80025f4:	4803      	ldr	r0, [pc, #12]	@ (8002604 <stdio_exit_handler+0x14>)
 80025f6:	f000 b869 	b.w	80026cc <_fwalk_sglue>
 80025fa:	bf00      	nop
 80025fc:	20000000 	.word	0x20000000
 8002600:	08003f3d 	.word	0x08003f3d
 8002604:	20000010 	.word	0x20000010

08002608 <cleanup_stdio>:
 8002608:	6841      	ldr	r1, [r0, #4]
 800260a:	4b0c      	ldr	r3, [pc, #48]	@ (800263c <cleanup_stdio+0x34>)
 800260c:	4299      	cmp	r1, r3
 800260e:	b510      	push	{r4, lr}
 8002610:	4604      	mov	r4, r0
 8002612:	d001      	beq.n	8002618 <cleanup_stdio+0x10>
 8002614:	f001 fc92 	bl	8003f3c <_fflush_r>
 8002618:	68a1      	ldr	r1, [r4, #8]
 800261a:	4b09      	ldr	r3, [pc, #36]	@ (8002640 <cleanup_stdio+0x38>)
 800261c:	4299      	cmp	r1, r3
 800261e:	d002      	beq.n	8002626 <cleanup_stdio+0x1e>
 8002620:	4620      	mov	r0, r4
 8002622:	f001 fc8b 	bl	8003f3c <_fflush_r>
 8002626:	68e1      	ldr	r1, [r4, #12]
 8002628:	4b06      	ldr	r3, [pc, #24]	@ (8002644 <cleanup_stdio+0x3c>)
 800262a:	4299      	cmp	r1, r3
 800262c:	d004      	beq.n	8002638 <cleanup_stdio+0x30>
 800262e:	4620      	mov	r0, r4
 8002630:	e8bd 4010 	ldmia.w	sp!, {r4, lr}
 8002634:	f001 bc82 	b.w	8003f3c <_fflush_r>
 8002638:	bd10      	pop	{r4, pc}
 800263a:	bf00      	nop
 800263c:	2000020c 	.word	0x2000020c
 8002640:	20000274 	.word	0x20000274
 8002644:	200002dc 	.word	0x200002dc

08002648 <global_stdio_init.part.0>:
 8002648:	b510      	push	{r4, lr}
 800264a:	4b0b      	ldr	r3, [pc, #44]	@ (8002678 <global_stdio_init.part.0+0x30>)
 800264c:	4c0b      	ldr	r4, [pc, #44]	@ (800267c <global_stdio_init.part.0+0x34>)
 800264e:	4a0c      	ldr	r2, [pc, #48]	@ (8002680 <global_stdio_init.part.0+0x38>)
 8002650:	601a      	str	r2, [r3, #0]
 8002652:	4620      	mov	r0, r4
 8002654:	2200      	movs	r2, #0
 8002656:	2104      	movs	r1, #4
 8002658:	f7ff ff94 	bl	8002584 <std>
 800265c:	f104 0068 	add.w	r0, r4, #104	@ 0x68
 8002660:	2201      	movs	r2, #1
 8002662:	2109      	movs	r1, #9
 8002664:	f7ff ff8e 	bl	8002584 <std>
 8002668:	f104 00d0 	add.w	r0, r4, #208	@ 0xd0
 800266c:	2202      	movs	r2, #2
 800266e:	e8bd 4010 	ldmia.w	sp!, {r4, lr}
 8002672:	2112      	movs	r1, #18
 8002674:	f7ff bf86 	b.w	8002584 <std>
 8002678:	20000344 	.word	0x20000344
 800267c:	2000020c 	.word	0x2000020c
 8002680:	080025f1 	.word	0x080025f1

08002684 <__sfp_lock_acquire>:
 8002684:	4801      	ldr	r0, [pc, #4]	@ (800268c <__sfp_lock_acquire+0x8>)
 8002686:	f000 b900 	b.w	800288a <__retarget_lock_acquire_recursive>
 800268a:	bf00      	nop
 800268c:	2000034d 	.word	0x2000034d

08002690 <__sfp_lock_release>:
 8002690:	4801      	ldr	r0, [pc, #4]	@ (8002698 <__sfp_lock_release+0x8>)
 8002692:	f000 b8fb 	b.w	800288c <__retarget_lock_release_recursive>
 8002696:	bf00      	nop
 8002698:	2000034d 	.word	0x2000034d

0800269c <__sinit>:
 800269c:	b510      	push	{r4, lr}
 800269e:	4604      	mov	r4, r0
 80026a0:	f7ff fff0 	bl	8002684 <__sfp_lock_acquire>
 80026a4:	6a23      	ldr	r3, [r4, #32]
 80026a6:	b11b      	cbz	r3, 80026b0 <__sinit+0x14>
 80026a8:	e8bd 4010 	ldmia.w	sp!, {r4, lr}
 80026ac:	f7ff bff0 	b.w	8002690 <__sfp_lock_release>
 80026b0:	4b04      	ldr	r3, [pc, #16]	@ (80026c4 <__sinit+0x28>)
 80026b2:	6223      	str	r3, [r4, #32]
 80026b4:	4b04      	ldr	r3, [pc, #16]	@ (80026c8 <__sinit+0x2c>)
 80026b6:	681b      	ldr	r3, [r3, #0]
 80026b8:	2b00      	cmp	r3, #0
 80026ba:	d1f5      	bne.n	80026a8 <__sinit+0xc>
 80026bc:	f7ff ffc4 	bl	8002648 <global_stdio_init.part.0>
 80026c0:	e7f2      	b.n	80026a8 <__sinit+0xc>
 80026c2:	bf00      	nop
 80026c4:	08002609 	.word	0x08002609
 80026c8:	20000344 	.word	0x20000344

080026cc <_fwalk_sglue>:
 80026cc:	e92d 43f8 	stmdb	sp!, {r3, r4, r5, r6, r7, r8, r9, lr}
 80026d0:	4607      	mov	r7, r0
 80026d2:	4688      	mov	r8, r1
 80026d4:	4614      	mov	r4, r2
 80026d6:	2600      	movs	r6, #0
 80026d8:	e9d4 9501 	ldrd	r9, r5, [r4, #4]
 80026dc:	f1b9 0901 	subs.w	r9, r9, #1
 80026e0:	d505      	bpl.n	80026ee <_fwalk_sglue+0x22>
 80026e2:	6824      	ldr	r4, [r4, #0]
 80026e4:	2c00      	cmp	r4, #0
 80026e6:	d1f7      	bne.n	80026d8 <_fwalk_sglue+0xc>
 80026e8:	4630      	mov	r0, r6
 80026ea:	e8bd 83f8 	ldmia.w	sp!, {r3, r4, r5, r6, r7, r8, r9, pc}
 80026ee:	89ab      	ldrh	r3, [r5, #12]
 80026f0:	2b01      	cmp	r3, #1
 80026f2:	d907      	bls.n	8002704 <_fwalk_sglue+0x38>
 80026f4:	f9b5 300e 	ldrsh.w	r3, [r5, #14]
 80026f8:	3301      	adds	r3, #1
 80026fa:	d003      	beq.n	8002704 <_fwalk_sglue+0x38>
 80026fc:	4629      	mov	r1, r5
 80026fe:	4638      	mov	r0, r7
 8002700:	47c0      	blx	r8
 8002702:	4306      	orrs	r6, r0
 8002704:	3568      	adds	r5, #104	@ 0x68
 8002706:	e7e9      	b.n	80026dc <_fwalk_sglue+0x10>

08002708 <__sread>:
 8002708:	b510      	push	{r4, lr}
 800270a:	460c      	mov	r4, r1
 800270c:	f9b1 100e 	ldrsh.w	r1, [r1, #14]
 8002710:	f000 f86c 	bl	80027ec <_read_r>
 8002714:	2800      	cmp	r0, #0
 8002716:	bfab      	itete	ge
 8002718:	6d63      	ldrge	r3, [r4, #84]	@ 0x54
 800271a:	89a3      	ldrhlt	r3, [r4, #12]
 800271c:	181b      	addge	r3, r3, r0
 800271e:	f423 5380 	biclt.w	r3, r3, #4096	@ 0x1000
 8002722:	bfac      	ite	ge
 8002724:	6563      	strge	r3, [r4, #84]	@ 0x54
 8002726:	81a3      	strhlt	r3, [r4, #12]
 8002728:	bd10      	pop	{r4, pc}

0800272a <__swrite>:
 800272a:	e92d 41f0 	stmdb	sp!, {r4, r5, r6, r7, r8, lr}
 800272e:	461f      	mov	r7, r3
 8002730:	898b      	ldrh	r3, [r1, #12]
 8002732:	05db      	lsls	r3, r3, #23
 8002734:	4605      	mov	r5, r0
 8002736:	460c      	mov	r4, r1
 8002738:	4616      	mov	r6, r2
 800273a:	d505      	bpl.n	8002748 <__swrite+0x1e>
 800273c:	f9b1 100e 	ldrsh.w	r1, [r1, #14]
 8002740:	2302      	movs	r3, #2
 8002742:	2200      	movs	r2, #0
 8002744:	f000 f840 	bl	80027c8 <_lseek_r>
 8002748:	89a3      	ldrh	r3, [r4, #12]
 800274a:	f9b4 100e 	ldrsh.w	r1, [r4, #14]
 800274e:	f423 5380 	bic.w	r3, r3, #4096	@ 0x1000
 8002752:	81a3      	strh	r3, [r4, #12]
 8002754:	4632      	mov	r2, r6
 8002756:	463b      	mov	r3, r7
 8002758:	4628      	mov	r0, r5
 800275a:	e8bd 41f0 	ldmia.w	sp!, {r4, r5, r6, r7, r8, lr}
 800275e:	f000 b857 	b.w	8002810 <_write_r>

08002762 <__sseek>:
 8002762:	b510      	push	{r4, lr}
 8002764:	460c      	mov	r4, r1
 8002766:	f9b1 100e 	ldrsh.w	r1, [r1, #14]
 800276a:	f000 f82d 	bl	80027c8 <_lseek_r>
 800276e:	1c43      	adds	r3, r0, #1
 8002770:	89a3      	ldrh	r3, [r4, #12]
 8002772:	bf15      	itete	ne
 8002774:	6560      	strne	r0, [r4, #84]	@ 0x54
 8002776:	f423 5380 	biceq.w	r3, r3, #4096	@ 0x1000
 800277a:	f443 5380 	orrne.w	r3, r3, #4096	@ 0x1000
 800277e:	81a3      	strheq	r3, [r4, #12]
 8002780:	bf18      	it	ne
 8002782:	81a3      	strhne	r3, [r4, #12]
 8002784:	bd10      	pop	{r4, pc}

08002786 <__sclose>:
 8002786:	f9b1 100e 	ldrsh.w	r1, [r1, #14]
 800278a:	f000 b80d 	b.w	80027a8 <_close_r>

0800278e <memset>:
 800278e:	4402      	add	r2, r0
 8002790:	4603      	mov	r3, r0
 8002792:	4293      	cmp	r3, r2
 8002794:	d100      	bne.n	8002798 <memset+0xa>
 8002796:	4770      	bx	lr
 8002798:	f803 1b01 	strb.w	r1, [r3], #1
 800279c:	e7f9      	b.n	8002792 <memset+0x4>
	...

080027a0 <_localeconv_r>:
 80027a0:	4800      	ldr	r0, [pc, #0]	@ (80027a4 <_localeconv_r+0x4>)
 80027a2:	4770      	bx	lr
 80027a4:	2000014c 	.word	0x2000014c

080027a8 <_close_r>:
 80027a8:	b538      	push	{r3, r4, r5, lr}
 80027aa:	4d06      	ldr	r5, [pc, #24]	@ (80027c4 <_close_r+0x1c>)
 80027ac:	2300      	movs	r3, #0
 80027ae:	4604      	mov	r4, r0
 80027b0:	4608      	mov	r0, r1
 80027b2:	602b      	str	r3, [r5, #0]
 80027b4:	f7ff f8f6 	bl	80019a4 <_close>
 80027b8:	1c43      	adds	r3, r0, #1
 80027ba:	d102      	bne.n	80027c2 <_close_r+0x1a>
 80027bc:	682b      	ldr	r3, [r5, #0]
 80027be:	b103      	cbz	r3, 80027c2 <_close_r+0x1a>
 80027c0:	6023      	str	r3, [r4, #0]
 80027c2:	bd38      	pop	{r3, r4, r5, pc}
 80027c4:	20000348 	.word	0x20000348

080027c8 <_lseek_r>:
 80027c8:	b538      	push	{r3, r4, r5, lr}
 80027ca:	4d07      	ldr	r5, [pc, #28]	@ (80027e8 <_lseek_r+0x20>)
 80027cc:	4604      	mov	r4, r0
 80027ce:	4608      	mov	r0, r1
 80027d0:	4611      	mov	r1, r2
 80027d2:	2200      	movs	r2, #0
 80027d4:	602a      	str	r2, [r5, #0]
 80027d6:	461a      	mov	r2, r3
 80027d8:	f7ff f90b 	bl	80019f2 <_lseek>
 80027dc:	1c43      	adds	r3, r0, #1
 80027de:	d102      	bne.n	80027e6 <_lseek_r+0x1e>
 80027e0:	682b      	ldr	r3, [r5, #0]
 80027e2:	b103      	cbz	r3, 80027e6 <_lseek_r+0x1e>
 80027e4:	6023      	str	r3, [r4, #0]
 80027e6:	bd38      	pop	{r3, r4, r5, pc}
 80027e8:	20000348 	.word	0x20000348

080027ec <_read_r>:
 80027ec:	b538      	push	{r3, r4, r5, lr}
 80027ee:	4d07      	ldr	r5, [pc, #28]	@ (800280c <_read_r+0x20>)
 80027f0:	4604      	mov	r4, r0
 80027f2:	4608      	mov	r0, r1
 80027f4:	4611      	mov	r1, r2
 80027f6:	2200      	movs	r2, #0
 80027f8:	602a      	str	r2, [r5, #0]
 80027fa:	461a      	mov	r2, r3
 80027fc:	f7ff f899 	bl	8001932 <_read>
 8002800:	1c43      	adds	r3, r0, #1
 8002802:	d102      	bne.n	800280a <_read_r+0x1e>
 8002804:	682b      	ldr	r3, [r5, #0]
 8002806:	b103      	cbz	r3, 800280a <_read_r+0x1e>
 8002808:	6023      	str	r3, [r4, #0]
 800280a:	bd38      	pop	{r3, r4, r5, pc}
 800280c:	20000348 	.word	0x20000348

08002810 <_write_r>:
 8002810:	b538      	push	{r3, r4, r5, lr}
 8002812:	4d07      	ldr	r5, [pc, #28]	@ (8002830 <_write_r+0x20>)
 8002814:	4604      	mov	r4, r0
 8002816:	4608      	mov	r0, r1
 8002818:	4611      	mov	r1, r2
 800281a:	2200      	movs	r2, #0
 800281c:	602a      	str	r2, [r5, #0]
 800281e:	461a      	mov	r2, r3
 8002820:	f7ff f8a4 	bl	800196c <_write>
 8002824:	1c43      	adds	r3, r0, #1
 8002826:	d102      	bne.n	800282e <_write_r+0x1e>
 8002828:	682b      	ldr	r3, [r5, #0]
 800282a:	b103      	cbz	r3, 800282e <_write_r+0x1e>
 800282c:	6023      	str	r3, [r4, #0]
 800282e:	bd38      	pop	{r3, r4, r5, pc}
 8002830:	20000348 	.word	0x20000348

08002834 <__errno>:
 8002834:	4b01      	ldr	r3, [pc, #4]	@ (800283c <__errno+0x8>)
 8002836:	6818      	ldr	r0, [r3, #0]
 8002838:	4770      	bx	lr
 800283a:	bf00      	nop
 800283c:	2000000c 	.word	0x2000000c

08002840 <__libc_init_array>:
 8002840:	b570      	push	{r4, r5, r6, lr}
 8002842:	4d0d      	ldr	r5, [pc, #52]	@ (8002878 <__libc_init_array+0x38>)
 8002844:	4c0d      	ldr	r4, [pc, #52]	@ (800287c <__libc_init_array+0x3c>)
 8002846:	1b64      	subs	r4, r4, r5
 8002848:	10a4      	asrs	r4, r4, #2
 800284a:	2600      	movs	r6, #0
 800284c:	42a6      	cmp	r6, r4
 800284e:	d109      	bne.n	8002864 <__libc_init_array+0x24>
 8002850:	4d0b      	ldr	r5, [pc, #44]	@ (8002880 <__libc_init_array+0x40>)
 8002852:	4c0c      	ldr	r4, [pc, #48]	@ (8002884 <__libc_init_array+0x44>)
 8002854:	f001 fec0 	bl	80045d8 <_init>
 8002858:	1b64      	subs	r4, r4, r5
 800285a:	10a4      	asrs	r4, r4, #2
 800285c:	2600      	movs	r6, #0
 800285e:	42a6      	cmp	r6, r4
 8002860:	d105      	bne.n	800286e <__libc_init_array+0x2e>
 8002862:	bd70      	pop	{r4, r5, r6, pc}
 8002864:	f855 3b04 	ldr.w	r3, [r5], #4
 8002868:	4798      	blx	r3
 800286a:	3601      	adds	r6, #1
 800286c:	e7ee      	b.n	800284c <__libc_init_array+0xc>
 800286e:	f855 3b04 	ldr.w	r3, [r5], #4
 8002872:	4798      	blx	r3
 8002874:	3601      	adds	r6, #1
 8002876:	e7f2      	b.n	800285e <__libc_init_array+0x1e>
 8002878:	0800496c 	.word	0x0800496c
 800287c:	0800496c 	.word	0x0800496c
 8002880:	0800496c 	.word	0x0800496c
 8002884:	08004970 	.word	0x08004970

08002888 <__retarget_lock_init_recursive>:
 8002888:	4770      	bx	lr

0800288a <__retarget_lock_acquire_recursive>:
 800288a:	4770      	bx	lr

0800288c <__retarget_lock_release_recursive>:
 800288c:	4770      	bx	lr

0800288e <quorem>:
 800288e:	e92d 4ff7 	stmdb	sp!, {r0, r1, r2, r4, r5, r6, r7, r8, r9, sl, fp, lr}
 8002892:	6903      	ldr	r3, [r0, #16]
 8002894:	690c      	ldr	r4, [r1, #16]
 8002896:	42a3      	cmp	r3, r4
 8002898:	4607      	mov	r7, r0
 800289a:	db7e      	blt.n	800299a <quorem+0x10c>
 800289c:	3c01      	subs	r4, #1
 800289e:	f101 0814 	add.w	r8, r1, #20
 80028a2:	00a3      	lsls	r3, r4, #2
 80028a4:	f100 0514 	add.w	r5, r0, #20
 80028a8:	9300      	str	r3, [sp, #0]
 80028aa:	eb05 0384 	add.w	r3, r5, r4, lsl #2
 80028ae:	9301      	str	r3, [sp, #4]
 80028b0:	f858 3024 	ldr.w	r3, [r8, r4, lsl #2]
 80028b4:	f855 2024 	ldr.w	r2, [r5, r4, lsl #2]
 80028b8:	3301      	adds	r3, #1
 80028ba:	429a      	cmp	r2, r3
 80028bc:	eb08 0984 	add.w	r9, r8, r4, lsl #2
 80028c0:	fbb2 f6f3 	udiv	r6, r2, r3
 80028c4:	d32e      	bcc.n	8002924 <quorem+0x96>
 80028c6:	f04f 0a00 	mov.w	sl, #0
 80028ca:	46c4      	mov	ip, r8
 80028cc:	46ae      	mov	lr, r5
 80028ce:	46d3      	mov	fp, sl
 80028d0:	f85c 3b04 	ldr.w	r3, [ip], #4
 80028d4:	b298      	uxth	r0, r3
 80028d6:	fb06 a000 	mla	r0, r6, r0, sl
 80028da:	0c02      	lsrs	r2, r0, #16
 80028dc:	0c1b      	lsrs	r3, r3, #16
 80028de:	fb06 2303 	mla	r3, r6, r3, r2
 80028e2:	f8de 2000 	ldr.w	r2, [lr]
 80028e6:	b280      	uxth	r0, r0
 80028e8:	b292      	uxth	r2, r2
 80028ea:	1a12      	subs	r2, r2, r0
 80028ec:	445a      	add	r2, fp
 80028ee:	f8de 0000 	ldr.w	r0, [lr]
 80028f2:	ea4f 4a13 	mov.w	sl, r3, lsr #16
 80028f6:	b29b      	uxth	r3, r3
 80028f8:	ebc3 4322 	rsb	r3, r3, r2, asr #16
 80028fc:	eb03 4310 	add.w	r3, r3, r0, lsr #16
 8002900:	b292      	uxth	r2, r2
 8002902:	ea42 4203 	orr.w	r2, r2, r3, lsl #16
 8002906:	45e1      	cmp	r9, ip
 8002908:	f84e 2b04 	str.w	r2, [lr], #4
 800290c:	ea4f 4b23 	mov.w	fp, r3, asr #16
 8002910:	d2de      	bcs.n	80028d0 <quorem+0x42>
 8002912:	9b00      	ldr	r3, [sp, #0]
 8002914:	58eb      	ldr	r3, [r5, r3]
 8002916:	b92b      	cbnz	r3, 8002924 <quorem+0x96>
 8002918:	9b01      	ldr	r3, [sp, #4]
 800291a:	3b04      	subs	r3, #4
 800291c:	429d      	cmp	r5, r3
 800291e:	461a      	mov	r2, r3
 8002920:	d32f      	bcc.n	8002982 <quorem+0xf4>
 8002922:	613c      	str	r4, [r7, #16]
 8002924:	4638      	mov	r0, r7
 8002926:	f001 f97d 	bl	8003c24 <__mcmp>
 800292a:	2800      	cmp	r0, #0
 800292c:	db25      	blt.n	800297a <quorem+0xec>
 800292e:	4629      	mov	r1, r5
 8002930:	2000      	movs	r0, #0
 8002932:	f858 2b04 	ldr.w	r2, [r8], #4
 8002936:	f8d1 c000 	ldr.w	ip, [r1]
 800293a:	fa1f fe82 	uxth.w	lr, r2
 800293e:	fa1f f38c 	uxth.w	r3, ip
 8002942:	eba3 030e 	sub.w	r3, r3, lr
 8002946:	4403      	add	r3, r0
 8002948:	0c12      	lsrs	r2, r2, #16
 800294a:	ebc2 4223 	rsb	r2, r2, r3, asr #16
 800294e:	eb02 421c 	add.w	r2, r2, ip, lsr #16
 8002952:	b29b      	uxth	r3, r3
 8002954:	ea43 4302 	orr.w	r3, r3, r2, lsl #16
 8002958:	45c1      	cmp	r9, r8
 800295a:	f841 3b04 	str.w	r3, [r1], #4
 800295e:	ea4f 4022 	mov.w	r0, r2, asr #16
 8002962:	d2e6      	bcs.n	8002932 <quorem+0xa4>
 8002964:	f855 2024 	ldr.w	r2, [r5, r4, lsl #2]
 8002968:	eb05 0384 	add.w	r3, r5, r4, lsl #2
 800296c:	b922      	cbnz	r2, 8002978 <quorem+0xea>
 800296e:	3b04      	subs	r3, #4
 8002970:	429d      	cmp	r5, r3
 8002972:	461a      	mov	r2, r3
 8002974:	d30b      	bcc.n	800298e <quorem+0x100>
 8002976:	613c      	str	r4, [r7, #16]
 8002978:	3601      	adds	r6, #1
 800297a:	4630      	mov	r0, r6
 800297c:	b003      	add	sp, #12
 800297e:	e8bd 8ff0 	ldmia.w	sp!, {r4, r5, r6, r7, r8, r9, sl, fp, pc}
 8002982:	6812      	ldr	r2, [r2, #0]
 8002984:	3b04      	subs	r3, #4
 8002986:	2a00      	cmp	r2, #0
 8002988:	d1cb      	bne.n	8002922 <quorem+0x94>
 800298a:	3c01      	subs	r4, #1
 800298c:	e7c6      	b.n	800291c <quorem+0x8e>
 800298e:	6812      	ldr	r2, [r2, #0]
 8002990:	3b04      	subs	r3, #4
 8002992:	2a00      	cmp	r2, #0
 8002994:	d1ef      	bne.n	8002976 <quorem+0xe8>
 8002996:	3c01      	subs	r4, #1
 8002998:	e7ea      	b.n	8002970 <quorem+0xe2>
 800299a:	2000      	movs	r0, #0
 800299c:	e7ee      	b.n	800297c <quorem+0xee>
	...

080029a0 <_dtoa_r>:
 80029a0:	e92d 4ff0 	stmdb	sp!, {r4, r5, r6, r7, r8, r9, sl, fp, lr}
 80029a4:	69c7      	ldr	r7, [r0, #28]
 80029a6:	b097      	sub	sp, #92	@ 0x5c
 80029a8:	ed8d 0b04 	vstr	d0, [sp, #16]
 80029ac:	ec55 4b10 	vmov	r4, r5, d0
 80029b0:	9e20      	ldr	r6, [sp, #128]	@ 0x80
 80029b2:	9107      	str	r1, [sp, #28]
 80029b4:	4681      	mov	r9, r0
 80029b6:	920c      	str	r2, [sp, #48]	@ 0x30
 80029b8:	9311      	str	r3, [sp, #68]	@ 0x44
 80029ba:	b97f      	cbnz	r7, 80029dc <_dtoa_r+0x3c>
 80029bc:	2010      	movs	r0, #16
 80029be:	f000 fe09 	bl	80035d4 <malloc>
 80029c2:	4602      	mov	r2, r0
 80029c4:	f8c9 001c 	str.w	r0, [r9, #28]
 80029c8:	b920      	cbnz	r0, 80029d4 <_dtoa_r+0x34>
 80029ca:	4ba9      	ldr	r3, [pc, #676]	@ (8002c70 <_dtoa_r+0x2d0>)
 80029cc:	21ef      	movs	r1, #239	@ 0xef
 80029ce:	48a9      	ldr	r0, [pc, #676]	@ (8002c74 <_dtoa_r+0x2d4>)
 80029d0:	f001 fafa 	bl	8003fc8 <__assert_func>
 80029d4:	e9c0 7701 	strd	r7, r7, [r0, #4]
 80029d8:	6007      	str	r7, [r0, #0]
 80029da:	60c7      	str	r7, [r0, #12]
 80029dc:	f8d9 301c 	ldr.w	r3, [r9, #28]
 80029e0:	6819      	ldr	r1, [r3, #0]
 80029e2:	b159      	cbz	r1, 80029fc <_dtoa_r+0x5c>
 80029e4:	685a      	ldr	r2, [r3, #4]
 80029e6:	604a      	str	r2, [r1, #4]
 80029e8:	2301      	movs	r3, #1
 80029ea:	4093      	lsls	r3, r2
 80029ec:	608b      	str	r3, [r1, #8]
 80029ee:	4648      	mov	r0, r9
 80029f0:	f000 fee6 	bl	80037c0 <_Bfree>
 80029f4:	f8d9 301c 	ldr.w	r3, [r9, #28]
 80029f8:	2200      	movs	r2, #0
 80029fa:	601a      	str	r2, [r3, #0]
 80029fc:	1e2b      	subs	r3, r5, #0
 80029fe:	bfb9      	ittee	lt
 8002a00:	f023 4300 	biclt.w	r3, r3, #2147483648	@ 0x80000000
 8002a04:	9305      	strlt	r3, [sp, #20]
 8002a06:	2300      	movge	r3, #0
 8002a08:	6033      	strge	r3, [r6, #0]
 8002a0a:	9f05      	ldr	r7, [sp, #20]
 8002a0c:	4b9a      	ldr	r3, [pc, #616]	@ (8002c78 <_dtoa_r+0x2d8>)
 8002a0e:	bfbc      	itt	lt
 8002a10:	2201      	movlt	r2, #1
 8002a12:	6032      	strlt	r2, [r6, #0]
 8002a14:	43bb      	bics	r3, r7
 8002a16:	d112      	bne.n	8002a3e <_dtoa_r+0x9e>
 8002a18:	9a11      	ldr	r2, [sp, #68]	@ 0x44
 8002a1a:	f242 730f 	movw	r3, #9999	@ 0x270f
 8002a1e:	6013      	str	r3, [r2, #0]
 8002a20:	f3c7 0313 	ubfx	r3, r7, #0, #20
 8002a24:	4323      	orrs	r3, r4
 8002a26:	f000 855a 	beq.w	80034de <_dtoa_r+0xb3e>
 8002a2a:	9b21      	ldr	r3, [sp, #132]	@ 0x84
 8002a2c:	f8df a25c 	ldr.w	sl, [pc, #604]	@ 8002c8c <_dtoa_r+0x2ec>
 8002a30:	2b00      	cmp	r3, #0
 8002a32:	f000 855c 	beq.w	80034ee <_dtoa_r+0xb4e>
 8002a36:	f10a 0303 	add.w	r3, sl, #3
 8002a3a:	f000 bd56 	b.w	80034ea <_dtoa_r+0xb4a>
 8002a3e:	ed9d 7b04 	vldr	d7, [sp, #16]
 8002a42:	2200      	movs	r2, #0
 8002a44:	ec51 0b17 	vmov	r0, r1, d7
 8002a48:	2300      	movs	r3, #0
 8002a4a:	ed8d 7b0a 	vstr	d7, [sp, #40]	@ 0x28
 8002a4e:	f7fe f83b 	bl	8000ac8 <__aeabi_dcmpeq>
 8002a52:	4680      	mov	r8, r0
 8002a54:	b158      	cbz	r0, 8002a6e <_dtoa_r+0xce>
 8002a56:	9a11      	ldr	r2, [sp, #68]	@ 0x44
 8002a58:	2301      	movs	r3, #1
 8002a5a:	6013      	str	r3, [r2, #0]
 8002a5c:	9b21      	ldr	r3, [sp, #132]	@ 0x84
 8002a5e:	b113      	cbz	r3, 8002a66 <_dtoa_r+0xc6>
 8002a60:	9a21      	ldr	r2, [sp, #132]	@ 0x84
 8002a62:	4b86      	ldr	r3, [pc, #536]	@ (8002c7c <_dtoa_r+0x2dc>)
 8002a64:	6013      	str	r3, [r2, #0]
 8002a66:	f8df a228 	ldr.w	sl, [pc, #552]	@ 8002c90 <_dtoa_r+0x2f0>
 8002a6a:	f000 bd40 	b.w	80034ee <_dtoa_r+0xb4e>
 8002a6e:	ed9d 0b0a 	vldr	d0, [sp, #40]	@ 0x28
 8002a72:	aa14      	add	r2, sp, #80	@ 0x50
 8002a74:	a915      	add	r1, sp, #84	@ 0x54
 8002a76:	4648      	mov	r0, r9
 8002a78:	f001 f984 	bl	8003d84 <__d2b>
 8002a7c:	f3c7 560a 	ubfx	r6, r7, #20, #11
 8002a80:	9002      	str	r0, [sp, #8]
 8002a82:	2e00      	cmp	r6, #0
 8002a84:	d078      	beq.n	8002b78 <_dtoa_r+0x1d8>
 8002a86:	9b0b      	ldr	r3, [sp, #44]	@ 0x2c
 8002a88:	f8cd 8048 	str.w	r8, [sp, #72]	@ 0x48
 8002a8c:	f3c3 0313 	ubfx	r3, r3, #0, #20
 8002a90:	e9dd 010a 	ldrd	r0, r1, [sp, #40]	@ 0x28
 8002a94:	f043 537f 	orr.w	r3, r3, #1069547520	@ 0x3fc00000
 8002a98:	f443 1340 	orr.w	r3, r3, #3145728	@ 0x300000
 8002a9c:	f2a6 36ff 	subw	r6, r6, #1023	@ 0x3ff
 8002aa0:	4619      	mov	r1, r3
 8002aa2:	2200      	movs	r2, #0
 8002aa4:	4b76      	ldr	r3, [pc, #472]	@ (8002c80 <_dtoa_r+0x2e0>)
 8002aa6:	f7fd fbef 	bl	8000288 <__aeabi_dsub>
 8002aaa:	a36b      	add	r3, pc, #428	@ (adr r3, 8002c58 <_dtoa_r+0x2b8>)
 8002aac:	e9d3 2300 	ldrd	r2, r3, [r3]
 8002ab0:	f7fd fda2 	bl	80005f8 <__aeabi_dmul>
 8002ab4:	a36a      	add	r3, pc, #424	@ (adr r3, 8002c60 <_dtoa_r+0x2c0>)
 8002ab6:	e9d3 2300 	ldrd	r2, r3, [r3]
 8002aba:	f7fd fbe7 	bl	800028c <__adddf3>
 8002abe:	4604      	mov	r4, r0
 8002ac0:	4630      	mov	r0, r6
 8002ac2:	460d      	mov	r5, r1
 8002ac4:	f7fd fd2e 	bl	8000524 <__aeabi_i2d>
 8002ac8:	a367      	add	r3, pc, #412	@ (adr r3, 8002c68 <_dtoa_r+0x2c8>)
 8002aca:	e9d3 2300 	ldrd	r2, r3, [r3]
 8002ace:	f7fd fd93 	bl	80005f8 <__aeabi_dmul>
 8002ad2:	4602      	mov	r2, r0
 8002ad4:	460b      	mov	r3, r1
 8002ad6:	4620      	mov	r0, r4
 8002ad8:	4629      	mov	r1, r5
 8002ada:	f7fd fbd7 	bl	800028c <__adddf3>
 8002ade:	4604      	mov	r4, r0
 8002ae0:	460d      	mov	r5, r1
 8002ae2:	f7fe f839 	bl	8000b58 <__aeabi_d2iz>
 8002ae6:	2200      	movs	r2, #0
 8002ae8:	4607      	mov	r7, r0
 8002aea:	2300      	movs	r3, #0
 8002aec:	4620      	mov	r0, r4
 8002aee:	4629      	mov	r1, r5
 8002af0:	f7fd fff4 	bl	8000adc <__aeabi_dcmplt>
 8002af4:	b140      	cbz	r0, 8002b08 <_dtoa_r+0x168>
 8002af6:	4638      	mov	r0, r7
 8002af8:	f7fd fd14 	bl	8000524 <__aeabi_i2d>
 8002afc:	4622      	mov	r2, r4
 8002afe:	462b      	mov	r3, r5
 8002b00:	f7fd ffe2 	bl	8000ac8 <__aeabi_dcmpeq>
 8002b04:	b900      	cbnz	r0, 8002b08 <_dtoa_r+0x168>
 8002b06:	3f01      	subs	r7, #1
 8002b08:	2f16      	cmp	r7, #22
 8002b0a:	d852      	bhi.n	8002bb2 <_dtoa_r+0x212>
 8002b0c:	4b5d      	ldr	r3, [pc, #372]	@ (8002c84 <_dtoa_r+0x2e4>)
 8002b0e:	eb03 03c7 	add.w	r3, r3, r7, lsl #3
 8002b12:	e9d3 2300 	ldrd	r2, r3, [r3]
 8002b16:	e9dd 010a 	ldrd	r0, r1, [sp, #40]	@ 0x28
 8002b1a:	f7fd ffdf 	bl	8000adc <__aeabi_dcmplt>
 8002b1e:	2800      	cmp	r0, #0
 8002b20:	d049      	beq.n	8002bb6 <_dtoa_r+0x216>
 8002b22:	3f01      	subs	r7, #1
 8002b24:	2300      	movs	r3, #0
 8002b26:	9310      	str	r3, [sp, #64]	@ 0x40
 8002b28:	9b14      	ldr	r3, [sp, #80]	@ 0x50
 8002b2a:	1b9b      	subs	r3, r3, r6
 8002b2c:	1e5a      	subs	r2, r3, #1
 8002b2e:	bf45      	ittet	mi
 8002b30:	f1c3 0301 	rsbmi	r3, r3, #1
 8002b34:	9300      	strmi	r3, [sp, #0]
 8002b36:	2300      	movpl	r3, #0
 8002b38:	2300      	movmi	r3, #0
 8002b3a:	9206      	str	r2, [sp, #24]
 8002b3c:	bf54      	ite	pl
 8002b3e:	9300      	strpl	r3, [sp, #0]
 8002b40:	9306      	strmi	r3, [sp, #24]
 8002b42:	2f00      	cmp	r7, #0
 8002b44:	db39      	blt.n	8002bba <_dtoa_r+0x21a>
 8002b46:	9b06      	ldr	r3, [sp, #24]
 8002b48:	970d      	str	r7, [sp, #52]	@ 0x34
 8002b4a:	443b      	add	r3, r7
 8002b4c:	9306      	str	r3, [sp, #24]
 8002b4e:	2300      	movs	r3, #0
 8002b50:	9308      	str	r3, [sp, #32]
 8002b52:	9b07      	ldr	r3, [sp, #28]
 8002b54:	2b09      	cmp	r3, #9
 8002b56:	d863      	bhi.n	8002c20 <_dtoa_r+0x280>
 8002b58:	2b05      	cmp	r3, #5
 8002b5a:	bfc4      	itt	gt
 8002b5c:	3b04      	subgt	r3, #4
 8002b5e:	9307      	strgt	r3, [sp, #28]
 8002b60:	9b07      	ldr	r3, [sp, #28]
 8002b62:	f1a3 0302 	sub.w	r3, r3, #2
 8002b66:	bfcc      	ite	gt
 8002b68:	2400      	movgt	r4, #0
 8002b6a:	2401      	movle	r4, #1
 8002b6c:	2b03      	cmp	r3, #3
 8002b6e:	d863      	bhi.n	8002c38 <_dtoa_r+0x298>
 8002b70:	e8df f003 	tbb	[pc, r3]
 8002b74:	2b375452 	.word	0x2b375452
 8002b78:	e9dd 6314 	ldrd	r6, r3, [sp, #80]	@ 0x50
 8002b7c:	441e      	add	r6, r3
 8002b7e:	f206 4332 	addw	r3, r6, #1074	@ 0x432
 8002b82:	2b20      	cmp	r3, #32
 8002b84:	bfc1      	itttt	gt
 8002b86:	f1c3 0340 	rsbgt	r3, r3, #64	@ 0x40
 8002b8a:	409f      	lslgt	r7, r3
 8002b8c:	f206 4312 	addwgt	r3, r6, #1042	@ 0x412
 8002b90:	fa24 f303 	lsrgt.w	r3, r4, r3
 8002b94:	bfd6      	itet	le
 8002b96:	f1c3 0320 	rsble	r3, r3, #32
 8002b9a:	ea47 0003 	orrgt.w	r0, r7, r3
 8002b9e:	fa04 f003 	lslle.w	r0, r4, r3
 8002ba2:	f7fd fcaf 	bl	8000504 <__aeabi_ui2d>
 8002ba6:	2201      	movs	r2, #1
 8002ba8:	f1a1 73f8 	sub.w	r3, r1, #32505856	@ 0x1f00000
 8002bac:	3e01      	subs	r6, #1
 8002bae:	9212      	str	r2, [sp, #72]	@ 0x48
 8002bb0:	e776      	b.n	8002aa0 <_dtoa_r+0x100>
 8002bb2:	2301      	movs	r3, #1
 8002bb4:	e7b7      	b.n	8002b26 <_dtoa_r+0x186>
 8002bb6:	9010      	str	r0, [sp, #64]	@ 0x40
 8002bb8:	e7b6      	b.n	8002b28 <_dtoa_r+0x188>
 8002bba:	9b00      	ldr	r3, [sp, #0]
 8002bbc:	1bdb      	subs	r3, r3, r7
 8002bbe:	9300      	str	r3, [sp, #0]
 8002bc0:	427b      	negs	r3, r7
 8002bc2:	9308      	str	r3, [sp, #32]
 8002bc4:	2300      	movs	r3, #0
 8002bc6:	930d      	str	r3, [sp, #52]	@ 0x34
 8002bc8:	e7c3      	b.n	8002b52 <_dtoa_r+0x1b2>
 8002bca:	2301      	movs	r3, #1
 8002bcc:	9309      	str	r3, [sp, #36]	@ 0x24
 8002bce:	9b0c      	ldr	r3, [sp, #48]	@ 0x30
 8002bd0:	eb07 0b03 	add.w	fp, r7, r3
 8002bd4:	f10b 0301 	add.w	r3, fp, #1
 8002bd8:	2b01      	cmp	r3, #1
 8002bda:	9303      	str	r3, [sp, #12]
 8002bdc:	bfb8      	it	lt
 8002bde:	2301      	movlt	r3, #1
 8002be0:	e006      	b.n	8002bf0 <_dtoa_r+0x250>
 8002be2:	2301      	movs	r3, #1
 8002be4:	9309      	str	r3, [sp, #36]	@ 0x24
 8002be6:	9b0c      	ldr	r3, [sp, #48]	@ 0x30
 8002be8:	2b00      	cmp	r3, #0
 8002bea:	dd28      	ble.n	8002c3e <_dtoa_r+0x29e>
 8002bec:	469b      	mov	fp, r3
 8002bee:	9303      	str	r3, [sp, #12]
 8002bf0:	f8d9 001c 	ldr.w	r0, [r9, #28]
 8002bf4:	2100      	movs	r1, #0
 8002bf6:	2204      	movs	r2, #4
 8002bf8:	f102 0514 	add.w	r5, r2, #20
 8002bfc:	429d      	cmp	r5, r3
 8002bfe:	d926      	bls.n	8002c4e <_dtoa_r+0x2ae>
 8002c00:	6041      	str	r1, [r0, #4]
 8002c02:	4648      	mov	r0, r9
 8002c04:	f000 fd9c 	bl	8003740 <_Balloc>
 8002c08:	4682      	mov	sl, r0
 8002c0a:	2800      	cmp	r0, #0
 8002c0c:	d142      	bne.n	8002c94 <_dtoa_r+0x2f4>
 8002c0e:	4b1e      	ldr	r3, [pc, #120]	@ (8002c88 <_dtoa_r+0x2e8>)
 8002c10:	4602      	mov	r2, r0
 8002c12:	f240 11af 	movw	r1, #431	@ 0x1af
 8002c16:	e6da      	b.n	80029ce <_dtoa_r+0x2e>
 8002c18:	2300      	movs	r3, #0
 8002c1a:	e7e3      	b.n	8002be4 <_dtoa_r+0x244>
 8002c1c:	2300      	movs	r3, #0
 8002c1e:	e7d5      	b.n	8002bcc <_dtoa_r+0x22c>
 8002c20:	2401      	movs	r4, #1
 8002c22:	2300      	movs	r3, #0
 8002c24:	9307      	str	r3, [sp, #28]
 8002c26:	9409      	str	r4, [sp, #36]	@ 0x24
 8002c28:	f04f 3bff 	mov.w	fp, #4294967295
 8002c2c:	2200      	movs	r2, #0
 8002c2e:	f8cd b00c 	str.w	fp, [sp, #12]
 8002c32:	2312      	movs	r3, #18
 8002c34:	920c      	str	r2, [sp, #48]	@ 0x30
 8002c36:	e7db      	b.n	8002bf0 <_dtoa_r+0x250>
 8002c38:	2301      	movs	r3, #1
 8002c3a:	9309      	str	r3, [sp, #36]	@ 0x24
 8002c3c:	e7f4      	b.n	8002c28 <_dtoa_r+0x288>
 8002c3e:	f04f 0b01 	mov.w	fp, #1
 8002c42:	f8cd b00c 	str.w	fp, [sp, #12]
 8002c46:	465b      	mov	r3, fp
 8002c48:	f8cd b030 	str.w	fp, [sp, #48]	@ 0x30
 8002c4c:	e7d0      	b.n	8002bf0 <_dtoa_r+0x250>
 8002c4e:	3101      	adds	r1, #1
 8002c50:	0052      	lsls	r2, r2, #1
 8002c52:	e7d1      	b.n	8002bf8 <_dtoa_r+0x258>
 8002c54:	f3af 8000 	nop.w
 8002c58:	636f4361 	.word	0x636f4361
 8002c5c:	3fd287a7 	.word	0x3fd287a7
 8002c60:	8b60c8b3 	.word	0x8b60c8b3
 8002c64:	3fc68a28 	.word	0x3fc68a28
 8002c68:	509f79fb 	.word	0x509f79fb
 8002c6c:	3fd34413 	.word	0x3fd34413
 8002c70:	08004631 	.word	0x08004631
 8002c74:	08004648 	.word	0x08004648
 8002c78:	7ff00000 	.word	0x7ff00000
 8002c7c:	08004601 	.word	0x08004601
 8002c80:	3ff80000 	.word	0x3ff80000
 8002c84:	08004798 	.word	0x08004798
 8002c88:	080046a0 	.word	0x080046a0
 8002c8c:	0800462d 	.word	0x0800462d
 8002c90:	08004600 	.word	0x08004600
 8002c94:	f8d9 301c 	ldr.w	r3, [r9, #28]
 8002c98:	6018      	str	r0, [r3, #0]
 8002c9a:	9b03      	ldr	r3, [sp, #12]
 8002c9c:	2b0e      	cmp	r3, #14
 8002c9e:	f200 80a1 	bhi.w	8002de4 <_dtoa_r+0x444>
 8002ca2:	2c00      	cmp	r4, #0
 8002ca4:	f000 809e 	beq.w	8002de4 <_dtoa_r+0x444>
 8002ca8:	2f00      	cmp	r7, #0
 8002caa:	dd33      	ble.n	8002d14 <_dtoa_r+0x374>
 8002cac:	4b9c      	ldr	r3, [pc, #624]	@ (8002f20 <_dtoa_r+0x580>)
 8002cae:	f007 020f 	and.w	r2, r7, #15
 8002cb2:	eb03 03c2 	add.w	r3, r3, r2, lsl #3
 8002cb6:	ed93 7b00 	vldr	d7, [r3]
 8002cba:	05f8      	lsls	r0, r7, #23
 8002cbc:	ed8d 7b0e 	vstr	d7, [sp, #56]	@ 0x38
 8002cc0:	ea4f 1427 	mov.w	r4, r7, asr #4
 8002cc4:	d516      	bpl.n	8002cf4 <_dtoa_r+0x354>
 8002cc6:	4b97      	ldr	r3, [pc, #604]	@ (8002f24 <_dtoa_r+0x584>)
 8002cc8:	e9dd 010a 	ldrd	r0, r1, [sp, #40]	@ 0x28
 8002ccc:	e9d3 2308 	ldrd	r2, r3, [r3, #32]
 8002cd0:	f7fd fdbc 	bl	800084c <__aeabi_ddiv>
 8002cd4:	e9cd 0104 	strd	r0, r1, [sp, #16]
 8002cd8:	f004 040f 	and.w	r4, r4, #15
 8002cdc:	2603      	movs	r6, #3
 8002cde:	4d91      	ldr	r5, [pc, #580]	@ (8002f24 <_dtoa_r+0x584>)
 8002ce0:	b954      	cbnz	r4, 8002cf8 <_dtoa_r+0x358>
 8002ce2:	e9dd 230e 	ldrd	r2, r3, [sp, #56]	@ 0x38
 8002ce6:	e9dd 0104 	ldrd	r0, r1, [sp, #16]
 8002cea:	f7fd fdaf 	bl	800084c <__aeabi_ddiv>
 8002cee:	e9cd 0104 	strd	r0, r1, [sp, #16]
 8002cf2:	e028      	b.n	8002d46 <_dtoa_r+0x3a6>
 8002cf4:	2602      	movs	r6, #2
 8002cf6:	e7f2      	b.n	8002cde <_dtoa_r+0x33e>
 8002cf8:	07e1      	lsls	r1, r4, #31
 8002cfa:	d508      	bpl.n	8002d0e <_dtoa_r+0x36e>
 8002cfc:	e9dd 010e 	ldrd	r0, r1, [sp, #56]	@ 0x38
 8002d00:	e9d5 2300 	ldrd	r2, r3, [r5]
 8002d04:	f7fd fc78 	bl	80005f8 <__aeabi_dmul>
 8002d08:	e9cd 010e 	strd	r0, r1, [sp, #56]	@ 0x38
 8002d0c:	3601      	adds	r6, #1
 8002d0e:	1064      	asrs	r4, r4, #1
 8002d10:	3508      	adds	r5, #8
 8002d12:	e7e5      	b.n	8002ce0 <_dtoa_r+0x340>
 8002d14:	f000 80af 	beq.w	8002e76 <_dtoa_r+0x4d6>
 8002d18:	427c      	negs	r4, r7
 8002d1a:	4b81      	ldr	r3, [pc, #516]	@ (8002f20 <_dtoa_r+0x580>)
 8002d1c:	4d81      	ldr	r5, [pc, #516]	@ (8002f24 <_dtoa_r+0x584>)
 8002d1e:	f004 020f 	and.w	r2, r4, #15
 8002d22:	eb03 03c2 	add.w	r3, r3, r2, lsl #3
 8002d26:	e9d3 2300 	ldrd	r2, r3, [r3]
 8002d2a:	e9dd 010a 	ldrd	r0, r1, [sp, #40]	@ 0x28
 8002d2e:	f7fd fc63 	bl	80005f8 <__aeabi_dmul>
 8002d32:	e9cd 0104 	strd	r0, r1, [sp, #16]
 8002d36:	1124      	asrs	r4, r4, #4
 8002d38:	2300      	movs	r3, #0
 8002d3a:	2602      	movs	r6, #2
 8002d3c:	2c00      	cmp	r4, #0
 8002d3e:	f040 808f 	bne.w	8002e60 <_dtoa_r+0x4c0>
 8002d42:	2b00      	cmp	r3, #0
 8002d44:	d1d3      	bne.n	8002cee <_dtoa_r+0x34e>
 8002d46:	9b10      	ldr	r3, [sp, #64]	@ 0x40
 8002d48:	e9dd 4504 	ldrd	r4, r5, [sp, #16]
 8002d4c:	2b00      	cmp	r3, #0
 8002d4e:	f000 8094 	beq.w	8002e7a <_dtoa_r+0x4da>
 8002d52:	4b75      	ldr	r3, [pc, #468]	@ (8002f28 <_dtoa_r+0x588>)
 8002d54:	2200      	movs	r2, #0
 8002d56:	4620      	mov	r0, r4
 8002d58:	4629      	mov	r1, r5
 8002d5a:	f7fd febf 	bl	8000adc <__aeabi_dcmplt>
 8002d5e:	2800      	cmp	r0, #0
 8002d60:	f000 808b 	beq.w	8002e7a <_dtoa_r+0x4da>
 8002d64:	9b03      	ldr	r3, [sp, #12]
 8002d66:	2b00      	cmp	r3, #0
 8002d68:	f000 8087 	beq.w	8002e7a <_dtoa_r+0x4da>
 8002d6c:	f1bb 0f00 	cmp.w	fp, #0
 8002d70:	dd34      	ble.n	8002ddc <_dtoa_r+0x43c>
 8002d72:	4620      	mov	r0, r4
 8002d74:	4b6d      	ldr	r3, [pc, #436]	@ (8002f2c <_dtoa_r+0x58c>)
 8002d76:	2200      	movs	r2, #0
 8002d78:	4629      	mov	r1, r5
 8002d7a:	f7fd fc3d 	bl	80005f8 <__aeabi_dmul>
 8002d7e:	e9cd 0104 	strd	r0, r1, [sp, #16]
 8002d82:	f107 38ff 	add.w	r8, r7, #4294967295
 8002d86:	3601      	adds	r6, #1
 8002d88:	465c      	mov	r4, fp
 8002d8a:	4630      	mov	r0, r6
 8002d8c:	f7fd fbca 	bl	8000524 <__aeabi_i2d>
 8002d90:	e9dd 2304 	ldrd	r2, r3, [sp, #16]
 8002d94:	f7fd fc30 	bl	80005f8 <__aeabi_dmul>
 8002d98:	4b65      	ldr	r3, [pc, #404]	@ (8002f30 <_dtoa_r+0x590>)
 8002d9a:	2200      	movs	r2, #0
 8002d9c:	f7fd fa76 	bl	800028c <__adddf3>
 8002da0:	4605      	mov	r5, r0
 8002da2:	f1a1 7650 	sub.w	r6, r1, #54525952	@ 0x3400000
 8002da6:	2c00      	cmp	r4, #0
 8002da8:	d16a      	bne.n	8002e80 <_dtoa_r+0x4e0>
 8002daa:	e9dd 0104 	ldrd	r0, r1, [sp, #16]
 8002dae:	4b61      	ldr	r3, [pc, #388]	@ (8002f34 <_dtoa_r+0x594>)
 8002db0:	2200      	movs	r2, #0
 8002db2:	f7fd fa69 	bl	8000288 <__aeabi_dsub>
 8002db6:	4602      	mov	r2, r0
 8002db8:	460b      	mov	r3, r1
 8002dba:	e9cd 2304 	strd	r2, r3, [sp, #16]
 8002dbe:	462a      	mov	r2, r5
 8002dc0:	4633      	mov	r3, r6
 8002dc2:	f7fd fea9 	bl	8000b18 <__aeabi_dcmpgt>
 8002dc6:	2800      	cmp	r0, #0
 8002dc8:	f040 8298 	bne.w	80032fc <_dtoa_r+0x95c>
 8002dcc:	e9dd 0104 	ldrd	r0, r1, [sp, #16]
 8002dd0:	462a      	mov	r2, r5
 8002dd2:	f106 4300 	add.w	r3, r6, #2147483648	@ 0x80000000
 8002dd6:	f7fd fe81 	bl	8000adc <__aeabi_dcmplt>
 8002dda:	bb38      	cbnz	r0, 8002e2c <_dtoa_r+0x48c>
 8002ddc:	e9dd 340a 	ldrd	r3, r4, [sp, #40]	@ 0x28
 8002de0:	e9cd 3404 	strd	r3, r4, [sp, #16]
 8002de4:	9b15      	ldr	r3, [sp, #84]	@ 0x54
 8002de6:	2b00      	cmp	r3, #0
 8002de8:	f2c0 8157 	blt.w	800309a <_dtoa_r+0x6fa>
 8002dec:	2f0e      	cmp	r7, #14
 8002dee:	f300 8154 	bgt.w	800309a <_dtoa_r+0x6fa>
 8002df2:	4b4b      	ldr	r3, [pc, #300]	@ (8002f20 <_dtoa_r+0x580>)
 8002df4:	eb03 03c7 	add.w	r3, r3, r7, lsl #3
 8002df8:	ed93 7b00 	vldr	d7, [r3]
 8002dfc:	9b0c      	ldr	r3, [sp, #48]	@ 0x30
 8002dfe:	2b00      	cmp	r3, #0
 8002e00:	ed8d 7b00 	vstr	d7, [sp]
 8002e04:	f280 80e5 	bge.w	8002fd2 <_dtoa_r+0x632>
 8002e08:	9b03      	ldr	r3, [sp, #12]
 8002e0a:	2b00      	cmp	r3, #0
 8002e0c:	f300 80e1 	bgt.w	8002fd2 <_dtoa_r+0x632>
 8002e10:	d10c      	bne.n	8002e2c <_dtoa_r+0x48c>
 8002e12:	4b48      	ldr	r3, [pc, #288]	@ (8002f34 <_dtoa_r+0x594>)
 8002e14:	2200      	movs	r2, #0
 8002e16:	ec51 0b17 	vmov	r0, r1, d7
 8002e1a:	f7fd fbed 	bl	80005f8 <__aeabi_dmul>
 8002e1e:	e9dd 2304 	ldrd	r2, r3, [sp, #16]
 8002e22:	f7fd fe6f 	bl	8000b04 <__aeabi_dcmpge>
 8002e26:	2800      	cmp	r0, #0
 8002e28:	f000 8266 	beq.w	80032f8 <_dtoa_r+0x958>
 8002e2c:	2400      	movs	r4, #0
 8002e2e:	4625      	mov	r5, r4
 8002e30:	9b0c      	ldr	r3, [sp, #48]	@ 0x30
 8002e32:	4656      	mov	r6, sl
 8002e34:	ea6f 0803 	mvn.w	r8, r3
 8002e38:	2700      	movs	r7, #0
 8002e3a:	4621      	mov	r1, r4
 8002e3c:	4648      	mov	r0, r9
 8002e3e:	f000 fcbf 	bl	80037c0 <_Bfree>
 8002e42:	2d00      	cmp	r5, #0
 8002e44:	f000 80bd 	beq.w	8002fc2 <_dtoa_r+0x622>
 8002e48:	b12f      	cbz	r7, 8002e56 <_dtoa_r+0x4b6>
 8002e4a:	42af      	cmp	r7, r5
 8002e4c:	d003      	beq.n	8002e56 <_dtoa_r+0x4b6>
 8002e4e:	4639      	mov	r1, r7
 8002e50:	4648      	mov	r0, r9
 8002e52:	f000 fcb5 	bl	80037c0 <_Bfree>
 8002e56:	4629      	mov	r1, r5
 8002e58:	4648      	mov	r0, r9
 8002e5a:	f000 fcb1 	bl	80037c0 <_Bfree>
 8002e5e:	e0b0      	b.n	8002fc2 <_dtoa_r+0x622>
 8002e60:	07e2      	lsls	r2, r4, #31
 8002e62:	d505      	bpl.n	8002e70 <_dtoa_r+0x4d0>
 8002e64:	e9d5 2300 	ldrd	r2, r3, [r5]
 8002e68:	f7fd fbc6 	bl	80005f8 <__aeabi_dmul>
 8002e6c:	3601      	adds	r6, #1
 8002e6e:	2301      	movs	r3, #1
 8002e70:	1064      	asrs	r4, r4, #1
 8002e72:	3508      	adds	r5, #8
 8002e74:	e762      	b.n	8002d3c <_dtoa_r+0x39c>
 8002e76:	2602      	movs	r6, #2
 8002e78:	e765      	b.n	8002d46 <_dtoa_r+0x3a6>
 8002e7a:	9c03      	ldr	r4, [sp, #12]
 8002e7c:	46b8      	mov	r8, r7
 8002e7e:	e784      	b.n	8002d8a <_dtoa_r+0x3ea>
 8002e80:	4b27      	ldr	r3, [pc, #156]	@ (8002f20 <_dtoa_r+0x580>)
 8002e82:	9909      	ldr	r1, [sp, #36]	@ 0x24
 8002e84:	eb03 03c4 	add.w	r3, r3, r4, lsl #3
 8002e88:	e953 2302 	ldrd	r2, r3, [r3, #-8]
 8002e8c:	4454      	add	r4, sl
 8002e8e:	2900      	cmp	r1, #0
 8002e90:	d054      	beq.n	8002f3c <_dtoa_r+0x59c>
 8002e92:	4929      	ldr	r1, [pc, #164]	@ (8002f38 <_dtoa_r+0x598>)
 8002e94:	2000      	movs	r0, #0
 8002e96:	f7fd fcd9 	bl	800084c <__aeabi_ddiv>
 8002e9a:	4633      	mov	r3, r6
 8002e9c:	462a      	mov	r2, r5
 8002e9e:	f7fd f9f3 	bl	8000288 <__aeabi_dsub>
 8002ea2:	e9cd 010e 	strd	r0, r1, [sp, #56]	@ 0x38
 8002ea6:	4656      	mov	r6, sl
 8002ea8:	e9dd 0104 	ldrd	r0, r1, [sp, #16]
 8002eac:	f7fd fe54 	bl	8000b58 <__aeabi_d2iz>
 8002eb0:	4605      	mov	r5, r0
 8002eb2:	f7fd fb37 	bl	8000524 <__aeabi_i2d>
 8002eb6:	4602      	mov	r2, r0
 8002eb8:	460b      	mov	r3, r1
 8002eba:	e9dd 0104 	ldrd	r0, r1, [sp, #16]
 8002ebe:	f7fd f9e3 	bl	8000288 <__aeabi_dsub>
 8002ec2:	3530      	adds	r5, #48	@ 0x30
 8002ec4:	4602      	mov	r2, r0
 8002ec6:	460b      	mov	r3, r1
 8002ec8:	e9cd 2304 	strd	r2, r3, [sp, #16]
 8002ecc:	f806 5b01 	strb.w	r5, [r6], #1
 8002ed0:	e9dd 230e 	ldrd	r2, r3, [sp, #56]	@ 0x38
 8002ed4:	f7fd fe02 	bl	8000adc <__aeabi_dcmplt>
 8002ed8:	2800      	cmp	r0, #0
 8002eda:	d172      	bne.n	8002fc2 <_dtoa_r+0x622>
 8002edc:	e9dd 2304 	ldrd	r2, r3, [sp, #16]
 8002ee0:	4911      	ldr	r1, [pc, #68]	@ (8002f28 <_dtoa_r+0x588>)
 8002ee2:	2000      	movs	r0, #0
 8002ee4:	f7fd f9d0 	bl	8000288 <__aeabi_dsub>
 8002ee8:	e9dd 230e 	ldrd	r2, r3, [sp, #56]	@ 0x38
 8002eec:	f7fd fdf6 	bl	8000adc <__aeabi_dcmplt>
 8002ef0:	2800      	cmp	r0, #0
 8002ef2:	f040 80b4 	bne.w	800305e <_dtoa_r+0x6be>
 8002ef6:	42a6      	cmp	r6, r4
 8002ef8:	f43f af70 	beq.w	8002ddc <_dtoa_r+0x43c>
 8002efc:	e9dd 010e 	ldrd	r0, r1, [sp, #56]	@ 0x38
 8002f00:	4b0a      	ldr	r3, [pc, #40]	@ (8002f2c <_dtoa_r+0x58c>)
 8002f02:	2200      	movs	r2, #0
 8002f04:	f7fd fb78 	bl	80005f8 <__aeabi_dmul>
 8002f08:	4b08      	ldr	r3, [pc, #32]	@ (8002f2c <_dtoa_r+0x58c>)
 8002f0a:	e9cd 010e 	strd	r0, r1, [sp, #56]	@ 0x38
 8002f0e:	2200      	movs	r2, #0
 8002f10:	e9dd 0104 	ldrd	r0, r1, [sp, #16]
 8002f14:	f7fd fb70 	bl	80005f8 <__aeabi_dmul>
 8002f18:	e9cd 0104 	strd	r0, r1, [sp, #16]
 8002f1c:	e7c4      	b.n	8002ea8 <_dtoa_r+0x508>
 8002f1e:	bf00      	nop
 8002f20:	08004798 	.word	0x08004798
 8002f24:	08004770 	.word	0x08004770
 8002f28:	3ff00000 	.word	0x3ff00000
 8002f2c:	40240000 	.word	0x40240000
 8002f30:	401c0000 	.word	0x401c0000
 8002f34:	40140000 	.word	0x40140000
 8002f38:	3fe00000 	.word	0x3fe00000
 8002f3c:	4631      	mov	r1, r6
 8002f3e:	4628      	mov	r0, r5
 8002f40:	f7fd fb5a 	bl	80005f8 <__aeabi_dmul>
 8002f44:	e9cd 010e 	strd	r0, r1, [sp, #56]	@ 0x38
 8002f48:	9413      	str	r4, [sp, #76]	@ 0x4c
 8002f4a:	4656      	mov	r6, sl
 8002f4c:	e9dd 0104 	ldrd	r0, r1, [sp, #16]
 8002f50:	f7fd fe02 	bl	8000b58 <__aeabi_d2iz>
 8002f54:	4605      	mov	r5, r0
 8002f56:	f7fd fae5 	bl	8000524 <__aeabi_i2d>
 8002f5a:	4602      	mov	r2, r0
 8002f5c:	460b      	mov	r3, r1
 8002f5e:	e9dd 0104 	ldrd	r0, r1, [sp, #16]
 8002f62:	f7fd f991 	bl	8000288 <__aeabi_dsub>
 8002f66:	3530      	adds	r5, #48	@ 0x30
 8002f68:	f806 5b01 	strb.w	r5, [r6], #1
 8002f6c:	4602      	mov	r2, r0
 8002f6e:	460b      	mov	r3, r1
 8002f70:	42a6      	cmp	r6, r4
 8002f72:	e9cd 2304 	strd	r2, r3, [sp, #16]
 8002f76:	f04f 0200 	mov.w	r2, #0
 8002f7a:	d124      	bne.n	8002fc6 <_dtoa_r+0x626>
 8002f7c:	4baf      	ldr	r3, [pc, #700]	@ (800323c <_dtoa_r+0x89c>)
 8002f7e:	e9dd 010e 	ldrd	r0, r1, [sp, #56]	@ 0x38
 8002f82:	f7fd f983 	bl	800028c <__adddf3>
 8002f86:	4602      	mov	r2, r0
 8002f88:	460b      	mov	r3, r1
 8002f8a:	e9dd 0104 	ldrd	r0, r1, [sp, #16]
 8002f8e:	f7fd fdc3 	bl	8000b18 <__aeabi_dcmpgt>
 8002f92:	2800      	cmp	r0, #0
 8002f94:	d163      	bne.n	800305e <_dtoa_r+0x6be>
 8002f96:	e9dd 230e 	ldrd	r2, r3, [sp, #56]	@ 0x38
 8002f9a:	49a8      	ldr	r1, [pc, #672]	@ (800323c <_dtoa_r+0x89c>)
 8002f9c:	2000      	movs	r0, #0
 8002f9e:	f7fd f973 	bl	8000288 <__aeabi_dsub>
 8002fa2:	4602      	mov	r2, r0
 8002fa4:	460b      	mov	r3, r1
 8002fa6:	e9dd 0104 	ldrd	r0, r1, [sp, #16]
 8002faa:	f7fd fd97 	bl	8000adc <__aeabi_dcmplt>
 8002fae:	2800      	cmp	r0, #0
 8002fb0:	f43f af14 	beq.w	8002ddc <_dtoa_r+0x43c>
 8002fb4:	9e13      	ldr	r6, [sp, #76]	@ 0x4c
 8002fb6:	1e73      	subs	r3, r6, #1
 8002fb8:	9313      	str	r3, [sp, #76]	@ 0x4c
 8002fba:	f816 3c01 	ldrb.w	r3, [r6, #-1]
 8002fbe:	2b30      	cmp	r3, #48	@ 0x30
 8002fc0:	d0f8      	beq.n	8002fb4 <_dtoa_r+0x614>
 8002fc2:	4647      	mov	r7, r8
 8002fc4:	e03b      	b.n	800303e <_dtoa_r+0x69e>
 8002fc6:	4b9e      	ldr	r3, [pc, #632]	@ (8003240 <_dtoa_r+0x8a0>)
 8002fc8:	f7fd fb16 	bl	80005f8 <__aeabi_dmul>
 8002fcc:	e9cd 0104 	strd	r0, r1, [sp, #16]
 8002fd0:	e7bc      	b.n	8002f4c <_dtoa_r+0x5ac>
 8002fd2:	e9dd 4504 	ldrd	r4, r5, [sp, #16]
 8002fd6:	4656      	mov	r6, sl
 8002fd8:	e9dd 2300 	ldrd	r2, r3, [sp]
 8002fdc:	4620      	mov	r0, r4
 8002fde:	4629      	mov	r1, r5
 8002fe0:	f7fd fc34 	bl	800084c <__aeabi_ddiv>
 8002fe4:	f7fd fdb8 	bl	8000b58 <__aeabi_d2iz>
 8002fe8:	4680      	mov	r8, r0
 8002fea:	f7fd fa9b 	bl	8000524 <__aeabi_i2d>
 8002fee:	e9dd 2300 	ldrd	r2, r3, [sp]
 8002ff2:	f7fd fb01 	bl	80005f8 <__aeabi_dmul>
 8002ff6:	4602      	mov	r2, r0
 8002ff8:	460b      	mov	r3, r1
 8002ffa:	4620      	mov	r0, r4
 8002ffc:	4629      	mov	r1, r5
 8002ffe:	f108 0430 	add.w	r4, r8, #48	@ 0x30
 8003002:	f7fd f941 	bl	8000288 <__aeabi_dsub>
 8003006:	f806 4b01 	strb.w	r4, [r6], #1
 800300a:	9d03      	ldr	r5, [sp, #12]
 800300c:	eba6 040a 	sub.w	r4, r6, sl
 8003010:	42a5      	cmp	r5, r4
 8003012:	4602      	mov	r2, r0
 8003014:	460b      	mov	r3, r1
 8003016:	d133      	bne.n	8003080 <_dtoa_r+0x6e0>
 8003018:	f7fd f938 	bl	800028c <__adddf3>
 800301c:	e9dd 2300 	ldrd	r2, r3, [sp]
 8003020:	4604      	mov	r4, r0
 8003022:	460d      	mov	r5, r1
 8003024:	f7fd fd78 	bl	8000b18 <__aeabi_dcmpgt>
 8003028:	b9c0      	cbnz	r0, 800305c <_dtoa_r+0x6bc>
 800302a:	e9dd 2300 	ldrd	r2, r3, [sp]
 800302e:	4620      	mov	r0, r4
 8003030:	4629      	mov	r1, r5
 8003032:	f7fd fd49 	bl	8000ac8 <__aeabi_dcmpeq>
 8003036:	b110      	cbz	r0, 800303e <_dtoa_r+0x69e>
 8003038:	f018 0f01 	tst.w	r8, #1
 800303c:	d10e      	bne.n	800305c <_dtoa_r+0x6bc>
 800303e:	9902      	ldr	r1, [sp, #8]
 8003040:	4648      	mov	r0, r9
 8003042:	f000 fbbd 	bl	80037c0 <_Bfree>
 8003046:	2300      	movs	r3, #0
 8003048:	7033      	strb	r3, [r6, #0]
 800304a:	9b11      	ldr	r3, [sp, #68]	@ 0x44
 800304c:	3701      	adds	r7, #1
 800304e:	601f      	str	r7, [r3, #0]
 8003050:	9b21      	ldr	r3, [sp, #132]	@ 0x84
 8003052:	2b00      	cmp	r3, #0
 8003054:	f000 824b 	beq.w	80034ee <_dtoa_r+0xb4e>
 8003058:	601e      	str	r6, [r3, #0]
 800305a:	e248      	b.n	80034ee <_dtoa_r+0xb4e>
 800305c:	46b8      	mov	r8, r7
 800305e:	4633      	mov	r3, r6
 8003060:	461e      	mov	r6, r3
 8003062:	f813 2d01 	ldrb.w	r2, [r3, #-1]!
 8003066:	2a39      	cmp	r2, #57	@ 0x39
 8003068:	d106      	bne.n	8003078 <_dtoa_r+0x6d8>
 800306a:	459a      	cmp	sl, r3
 800306c:	d1f8      	bne.n	8003060 <_dtoa_r+0x6c0>
 800306e:	2230      	movs	r2, #48	@ 0x30
 8003070:	f108 0801 	add.w	r8, r8, #1
 8003074:	f88a 2000 	strb.w	r2, [sl]
 8003078:	781a      	ldrb	r2, [r3, #0]
 800307a:	3201      	adds	r2, #1
 800307c:	701a      	strb	r2, [r3, #0]
 800307e:	e7a0      	b.n	8002fc2 <_dtoa_r+0x622>
 8003080:	4b6f      	ldr	r3, [pc, #444]	@ (8003240 <_dtoa_r+0x8a0>)
 8003082:	2200      	movs	r2, #0
 8003084:	f7fd fab8 	bl	80005f8 <__aeabi_dmul>
 8003088:	2200      	movs	r2, #0
 800308a:	2300      	movs	r3, #0
 800308c:	4604      	mov	r4, r0
 800308e:	460d      	mov	r5, r1
 8003090:	f7fd fd1a 	bl	8000ac8 <__aeabi_dcmpeq>
 8003094:	2800      	cmp	r0, #0
 8003096:	d09f      	beq.n	8002fd8 <_dtoa_r+0x638>
 8003098:	e7d1      	b.n	800303e <_dtoa_r+0x69e>
 800309a:	9a09      	ldr	r2, [sp, #36]	@ 0x24
 800309c:	2a00      	cmp	r2, #0
 800309e:	f000 80ea 	beq.w	8003276 <_dtoa_r+0x8d6>
 80030a2:	9a07      	ldr	r2, [sp, #28]
 80030a4:	2a01      	cmp	r2, #1
 80030a6:	f300 80cd 	bgt.w	8003244 <_dtoa_r+0x8a4>
 80030aa:	9a12      	ldr	r2, [sp, #72]	@ 0x48
 80030ac:	2a00      	cmp	r2, #0
 80030ae:	f000 80c1 	beq.w	8003234 <_dtoa_r+0x894>
 80030b2:	f203 4333 	addw	r3, r3, #1075	@ 0x433
 80030b6:	9c08      	ldr	r4, [sp, #32]
 80030b8:	9e00      	ldr	r6, [sp, #0]
 80030ba:	9a00      	ldr	r2, [sp, #0]
 80030bc:	441a      	add	r2, r3
 80030be:	9200      	str	r2, [sp, #0]
 80030c0:	9a06      	ldr	r2, [sp, #24]
 80030c2:	2101      	movs	r1, #1
 80030c4:	441a      	add	r2, r3
 80030c6:	4648      	mov	r0, r9
 80030c8:	9206      	str	r2, [sp, #24]
 80030ca:	f000 fc2d 	bl	8003928 <__i2b>
 80030ce:	4605      	mov	r5, r0
 80030d0:	b166      	cbz	r6, 80030ec <_dtoa_r+0x74c>
 80030d2:	9b06      	ldr	r3, [sp, #24]
 80030d4:	2b00      	cmp	r3, #0
 80030d6:	dd09      	ble.n	80030ec <_dtoa_r+0x74c>
 80030d8:	42b3      	cmp	r3, r6
 80030da:	9a00      	ldr	r2, [sp, #0]
 80030dc:	bfa8      	it	ge
 80030de:	4633      	movge	r3, r6
 80030e0:	1ad2      	subs	r2, r2, r3
 80030e2:	9200      	str	r2, [sp, #0]
 80030e4:	9a06      	ldr	r2, [sp, #24]
 80030e6:	1af6      	subs	r6, r6, r3
 80030e8:	1ad3      	subs	r3, r2, r3
 80030ea:	9306      	str	r3, [sp, #24]
 80030ec:	9b08      	ldr	r3, [sp, #32]
 80030ee:	b30b      	cbz	r3, 8003134 <_dtoa_r+0x794>
 80030f0:	9b09      	ldr	r3, [sp, #36]	@ 0x24
 80030f2:	2b00      	cmp	r3, #0
 80030f4:	f000 80c6 	beq.w	8003284 <_dtoa_r+0x8e4>
 80030f8:	2c00      	cmp	r4, #0
 80030fa:	f000 80c0 	beq.w	800327e <_dtoa_r+0x8de>
 80030fe:	4629      	mov	r1, r5
 8003100:	4622      	mov	r2, r4
 8003102:	4648      	mov	r0, r9
 8003104:	f000 fcc8 	bl	8003a98 <__pow5mult>
 8003108:	9a02      	ldr	r2, [sp, #8]
 800310a:	4601      	mov	r1, r0
 800310c:	4605      	mov	r5, r0
 800310e:	4648      	mov	r0, r9
 8003110:	f000 fc20 	bl	8003954 <__multiply>
 8003114:	9902      	ldr	r1, [sp, #8]
 8003116:	4680      	mov	r8, r0
 8003118:	4648      	mov	r0, r9
 800311a:	f000 fb51 	bl	80037c0 <_Bfree>
 800311e:	9b08      	ldr	r3, [sp, #32]
 8003120:	1b1b      	subs	r3, r3, r4
 8003122:	9308      	str	r3, [sp, #32]
 8003124:	f000 80b1 	beq.w	800328a <_dtoa_r+0x8ea>
 8003128:	9a08      	ldr	r2, [sp, #32]
 800312a:	4641      	mov	r1, r8
 800312c:	4648      	mov	r0, r9
 800312e:	f000 fcb3 	bl	8003a98 <__pow5mult>
 8003132:	9002      	str	r0, [sp, #8]
 8003134:	2101      	movs	r1, #1
 8003136:	4648      	mov	r0, r9
 8003138:	f000 fbf6 	bl	8003928 <__i2b>
 800313c:	9b0d      	ldr	r3, [sp, #52]	@ 0x34
 800313e:	4604      	mov	r4, r0
 8003140:	2b00      	cmp	r3, #0
 8003142:	f000 81d8 	beq.w	80034f6 <_dtoa_r+0xb56>
 8003146:	461a      	mov	r2, r3
 8003148:	4601      	mov	r1, r0
 800314a:	4648      	mov	r0, r9
 800314c:	f000 fca4 	bl	8003a98 <__pow5mult>
 8003150:	9b07      	ldr	r3, [sp, #28]
 8003152:	2b01      	cmp	r3, #1
 8003154:	4604      	mov	r4, r0
 8003156:	f300 809f 	bgt.w	8003298 <_dtoa_r+0x8f8>
 800315a:	9b04      	ldr	r3, [sp, #16]
 800315c:	2b00      	cmp	r3, #0
 800315e:	f040 8097 	bne.w	8003290 <_dtoa_r+0x8f0>
 8003162:	9b05      	ldr	r3, [sp, #20]
 8003164:	f3c3 0313 	ubfx	r3, r3, #0, #20
 8003168:	2b00      	cmp	r3, #0
 800316a:	f040 8093 	bne.w	8003294 <_dtoa_r+0x8f4>
 800316e:	9b05      	ldr	r3, [sp, #20]
 8003170:	f023 4300 	bic.w	r3, r3, #2147483648	@ 0x80000000
 8003174:	0d1b      	lsrs	r3, r3, #20
 8003176:	051b      	lsls	r3, r3, #20
 8003178:	b133      	cbz	r3, 8003188 <_dtoa_r+0x7e8>
 800317a:	9b00      	ldr	r3, [sp, #0]
 800317c:	3301      	adds	r3, #1
 800317e:	9300      	str	r3, [sp, #0]
 8003180:	9b06      	ldr	r3, [sp, #24]
 8003182:	3301      	adds	r3, #1
 8003184:	9306      	str	r3, [sp, #24]
 8003186:	2301      	movs	r3, #1
 8003188:	9308      	str	r3, [sp, #32]
 800318a:	9b0d      	ldr	r3, [sp, #52]	@ 0x34
 800318c:	2b00      	cmp	r3, #0
 800318e:	f000 81b8 	beq.w	8003502 <_dtoa_r+0xb62>
 8003192:	6923      	ldr	r3, [r4, #16]
 8003194:	eb04 0383 	add.w	r3, r4, r3, lsl #2
 8003198:	6918      	ldr	r0, [r3, #16]
 800319a:	f000 fb79 	bl	8003890 <__hi0bits>
 800319e:	f1c0 0020 	rsb	r0, r0, #32
 80031a2:	9b06      	ldr	r3, [sp, #24]
 80031a4:	4418      	add	r0, r3
 80031a6:	f010 001f 	ands.w	r0, r0, #31
 80031aa:	f000 8082 	beq.w	80032b2 <_dtoa_r+0x912>
 80031ae:	f1c0 0320 	rsb	r3, r0, #32
 80031b2:	2b04      	cmp	r3, #4
 80031b4:	dd73      	ble.n	800329e <_dtoa_r+0x8fe>
 80031b6:	9b00      	ldr	r3, [sp, #0]
 80031b8:	f1c0 001c 	rsb	r0, r0, #28
 80031bc:	4403      	add	r3, r0
 80031be:	9300      	str	r3, [sp, #0]
 80031c0:	9b06      	ldr	r3, [sp, #24]
 80031c2:	4403      	add	r3, r0
 80031c4:	4406      	add	r6, r0
 80031c6:	9306      	str	r3, [sp, #24]
 80031c8:	9b00      	ldr	r3, [sp, #0]
 80031ca:	2b00      	cmp	r3, #0
 80031cc:	dd05      	ble.n	80031da <_dtoa_r+0x83a>
 80031ce:	9902      	ldr	r1, [sp, #8]
 80031d0:	461a      	mov	r2, r3
 80031d2:	4648      	mov	r0, r9
 80031d4:	f000 fcba 	bl	8003b4c <__lshift>
 80031d8:	9002      	str	r0, [sp, #8]
 80031da:	9b06      	ldr	r3, [sp, #24]
 80031dc:	2b00      	cmp	r3, #0
 80031de:	dd05      	ble.n	80031ec <_dtoa_r+0x84c>
 80031e0:	4621      	mov	r1, r4
 80031e2:	461a      	mov	r2, r3
 80031e4:	4648      	mov	r0, r9
 80031e6:	f000 fcb1 	bl	8003b4c <__lshift>
 80031ea:	4604      	mov	r4, r0
 80031ec:	9b10      	ldr	r3, [sp, #64]	@ 0x40
 80031ee:	2b00      	cmp	r3, #0
 80031f0:	d061      	beq.n	80032b6 <_dtoa_r+0x916>
 80031f2:	9802      	ldr	r0, [sp, #8]
 80031f4:	4621      	mov	r1, r4
 80031f6:	f000 fd15 	bl	8003c24 <__mcmp>
 80031fa:	2800      	cmp	r0, #0
 80031fc:	da5b      	bge.n	80032b6 <_dtoa_r+0x916>
 80031fe:	2300      	movs	r3, #0
 8003200:	9902      	ldr	r1, [sp, #8]
 8003202:	220a      	movs	r2, #10
 8003204:	4648      	mov	r0, r9
 8003206:	f000 fafd 	bl	8003804 <__multadd>
 800320a:	9b09      	ldr	r3, [sp, #36]	@ 0x24
 800320c:	9002      	str	r0, [sp, #8]
 800320e:	f107 38ff 	add.w	r8, r7, #4294967295
 8003212:	2b00      	cmp	r3, #0
 8003214:	f000 8177 	beq.w	8003506 <_dtoa_r+0xb66>
 8003218:	4629      	mov	r1, r5
 800321a:	2300      	movs	r3, #0
 800321c:	220a      	movs	r2, #10
 800321e:	4648      	mov	r0, r9
 8003220:	f000 faf0 	bl	8003804 <__multadd>
 8003224:	f1bb 0f00 	cmp.w	fp, #0
 8003228:	4605      	mov	r5, r0
 800322a:	dc6f      	bgt.n	800330c <_dtoa_r+0x96c>
 800322c:	9b07      	ldr	r3, [sp, #28]
 800322e:	2b02      	cmp	r3, #2
 8003230:	dc49      	bgt.n	80032c6 <_dtoa_r+0x926>
 8003232:	e06b      	b.n	800330c <_dtoa_r+0x96c>
 8003234:	9b14      	ldr	r3, [sp, #80]	@ 0x50
 8003236:	f1c3 0336 	rsb	r3, r3, #54	@ 0x36
 800323a:	e73c      	b.n	80030b6 <_dtoa_r+0x716>
 800323c:	3fe00000 	.word	0x3fe00000
 8003240:	40240000 	.word	0x40240000
 8003244:	9b03      	ldr	r3, [sp, #12]
 8003246:	1e5c      	subs	r4, r3, #1
 8003248:	9b08      	ldr	r3, [sp, #32]
 800324a:	42a3      	cmp	r3, r4
 800324c:	db09      	blt.n	8003262 <_dtoa_r+0x8c2>
 800324e:	1b1c      	subs	r4, r3, r4
 8003250:	9b03      	ldr	r3, [sp, #12]
 8003252:	2b00      	cmp	r3, #0
 8003254:	f6bf af30 	bge.w	80030b8 <_dtoa_r+0x718>
 8003258:	9b00      	ldr	r3, [sp, #0]
 800325a:	9a03      	ldr	r2, [sp, #12]
 800325c:	1a9e      	subs	r6, r3, r2
 800325e:	2300      	movs	r3, #0
 8003260:	e72b      	b.n	80030ba <_dtoa_r+0x71a>
 8003262:	9b08      	ldr	r3, [sp, #32]
 8003264:	9a0d      	ldr	r2, [sp, #52]	@ 0x34
 8003266:	9408      	str	r4, [sp, #32]
 8003268:	1ae3      	subs	r3, r4, r3
 800326a:	441a      	add	r2, r3
 800326c:	9e00      	ldr	r6, [sp, #0]
 800326e:	9b03      	ldr	r3, [sp, #12]
 8003270:	920d      	str	r2, [sp, #52]	@ 0x34
 8003272:	2400      	movs	r4, #0
 8003274:	e721      	b.n	80030ba <_dtoa_r+0x71a>
 8003276:	9c08      	ldr	r4, [sp, #32]
 8003278:	9e00      	ldr	r6, [sp, #0]
 800327a:	9d09      	ldr	r5, [sp, #36]	@ 0x24
 800327c:	e728      	b.n	80030d0 <_dtoa_r+0x730>
 800327e:	f8dd 8008 	ldr.w	r8, [sp, #8]
 8003282:	e751      	b.n	8003128 <_dtoa_r+0x788>
 8003284:	9a08      	ldr	r2, [sp, #32]
 8003286:	9902      	ldr	r1, [sp, #8]
 8003288:	e750      	b.n	800312c <_dtoa_r+0x78c>
 800328a:	f8cd 8008 	str.w	r8, [sp, #8]
 800328e:	e751      	b.n	8003134 <_dtoa_r+0x794>
 8003290:	2300      	movs	r3, #0
 8003292:	e779      	b.n	8003188 <_dtoa_r+0x7e8>
 8003294:	9b04      	ldr	r3, [sp, #16]
 8003296:	e777      	b.n	8003188 <_dtoa_r+0x7e8>
 8003298:	2300      	movs	r3, #0
 800329a:	9308      	str	r3, [sp, #32]
 800329c:	e779      	b.n	8003192 <_dtoa_r+0x7f2>
 800329e:	d093      	beq.n	80031c8 <_dtoa_r+0x828>
 80032a0:	9a00      	ldr	r2, [sp, #0]
 80032a2:	331c      	adds	r3, #28
 80032a4:	441a      	add	r2, r3
 80032a6:	9200      	str	r2, [sp, #0]
 80032a8:	9a06      	ldr	r2, [sp, #24]
 80032aa:	441a      	add	r2, r3
 80032ac:	441e      	add	r6, r3
 80032ae:	9206      	str	r2, [sp, #24]
 80032b0:	e78a      	b.n	80031c8 <_dtoa_r+0x828>
 80032b2:	4603      	mov	r3, r0
 80032b4:	e7f4      	b.n	80032a0 <_dtoa_r+0x900>
 80032b6:	9b03      	ldr	r3, [sp, #12]
 80032b8:	2b00      	cmp	r3, #0
 80032ba:	46b8      	mov	r8, r7
 80032bc:	dc20      	bgt.n	8003300 <_dtoa_r+0x960>
 80032be:	469b      	mov	fp, r3
 80032c0:	9b07      	ldr	r3, [sp, #28]
 80032c2:	2b02      	cmp	r3, #2
 80032c4:	dd1e      	ble.n	8003304 <_dtoa_r+0x964>
 80032c6:	f1bb 0f00 	cmp.w	fp, #0
 80032ca:	f47f adb1 	bne.w	8002e30 <_dtoa_r+0x490>
 80032ce:	4621      	mov	r1, r4
 80032d0:	465b      	mov	r3, fp
 80032d2:	2205      	movs	r2, #5
 80032d4:	4648      	mov	r0, r9
 80032d6:	f000 fa95 	bl	8003804 <__multadd>
 80032da:	4601      	mov	r1, r0
 80032dc:	4604      	mov	r4, r0
 80032de:	9802      	ldr	r0, [sp, #8]
 80032e0:	f000 fca0 	bl	8003c24 <__mcmp>
 80032e4:	2800      	cmp	r0, #0
 80032e6:	f77f ada3 	ble.w	8002e30 <_dtoa_r+0x490>
 80032ea:	4656      	mov	r6, sl
 80032ec:	2331      	movs	r3, #49	@ 0x31
 80032ee:	f806 3b01 	strb.w	r3, [r6], #1
 80032f2:	f108 0801 	add.w	r8, r8, #1
 80032f6:	e59f      	b.n	8002e38 <_dtoa_r+0x498>
 80032f8:	9c03      	ldr	r4, [sp, #12]
 80032fa:	46b8      	mov	r8, r7
 80032fc:	4625      	mov	r5, r4
 80032fe:	e7f4      	b.n	80032ea <_dtoa_r+0x94a>
 8003300:	f8dd b00c 	ldr.w	fp, [sp, #12]
 8003304:	9b09      	ldr	r3, [sp, #36]	@ 0x24
 8003306:	2b00      	cmp	r3, #0
 8003308:	f000 8101 	beq.w	800350e <_dtoa_r+0xb6e>
 800330c:	2e00      	cmp	r6, #0
 800330e:	dd05      	ble.n	800331c <_dtoa_r+0x97c>
 8003310:	4629      	mov	r1, r5
 8003312:	4632      	mov	r2, r6
 8003314:	4648      	mov	r0, r9
 8003316:	f000 fc19 	bl	8003b4c <__lshift>
 800331a:	4605      	mov	r5, r0
 800331c:	9b08      	ldr	r3, [sp, #32]
 800331e:	2b00      	cmp	r3, #0
 8003320:	d05c      	beq.n	80033dc <_dtoa_r+0xa3c>
 8003322:	6869      	ldr	r1, [r5, #4]
 8003324:	4648      	mov	r0, r9
 8003326:	f000 fa0b 	bl	8003740 <_Balloc>
 800332a:	4606      	mov	r6, r0
 800332c:	b928      	cbnz	r0, 800333a <_dtoa_r+0x99a>
 800332e:	4b82      	ldr	r3, [pc, #520]	@ (8003538 <_dtoa_r+0xb98>)
 8003330:	4602      	mov	r2, r0
 8003332:	f240 21ef 	movw	r1, #751	@ 0x2ef
 8003336:	f7ff bb4a 	b.w	80029ce <_dtoa_r+0x2e>
 800333a:	692a      	ldr	r2, [r5, #16]
 800333c:	3202      	adds	r2, #2
 800333e:	0092      	lsls	r2, r2, #2
 8003340:	f105 010c 	add.w	r1, r5, #12
 8003344:	300c      	adds	r0, #12
 8003346:	f000 fe31 	bl	8003fac <memcpy>
 800334a:	2201      	movs	r2, #1
 800334c:	4631      	mov	r1, r6
 800334e:	4648      	mov	r0, r9
 8003350:	f000 fbfc 	bl	8003b4c <__lshift>
 8003354:	f10a 0301 	add.w	r3, sl, #1
 8003358:	9300      	str	r3, [sp, #0]
 800335a:	eb0a 030b 	add.w	r3, sl, fp
 800335e:	9308      	str	r3, [sp, #32]
 8003360:	9b04      	ldr	r3, [sp, #16]
 8003362:	f003 0301 	and.w	r3, r3, #1
 8003366:	462f      	mov	r7, r5
 8003368:	9306      	str	r3, [sp, #24]
 800336a:	4605      	mov	r5, r0
 800336c:	9b00      	ldr	r3, [sp, #0]
 800336e:	9802      	ldr	r0, [sp, #8]
 8003370:	4621      	mov	r1, r4
 8003372:	f103 3bff 	add.w	fp, r3, #4294967295
 8003376:	f7ff fa8a 	bl	800288e <quorem>
 800337a:	4603      	mov	r3, r0
 800337c:	3330      	adds	r3, #48	@ 0x30
 800337e:	9003      	str	r0, [sp, #12]
 8003380:	4639      	mov	r1, r7
 8003382:	9802      	ldr	r0, [sp, #8]
 8003384:	9309      	str	r3, [sp, #36]	@ 0x24
 8003386:	f000 fc4d 	bl	8003c24 <__mcmp>
 800338a:	462a      	mov	r2, r5
 800338c:	9004      	str	r0, [sp, #16]
 800338e:	4621      	mov	r1, r4
 8003390:	4648      	mov	r0, r9
 8003392:	f000 fc63 	bl	8003c5c <__mdiff>
 8003396:	68c2      	ldr	r2, [r0, #12]
 8003398:	9b09      	ldr	r3, [sp, #36]	@ 0x24
 800339a:	4606      	mov	r6, r0
 800339c:	bb02      	cbnz	r2, 80033e0 <_dtoa_r+0xa40>
 800339e:	4601      	mov	r1, r0
 80033a0:	9802      	ldr	r0, [sp, #8]
 80033a2:	f000 fc3f 	bl	8003c24 <__mcmp>
 80033a6:	9b09      	ldr	r3, [sp, #36]	@ 0x24
 80033a8:	4602      	mov	r2, r0
 80033aa:	4631      	mov	r1, r6
 80033ac:	4648      	mov	r0, r9
 80033ae:	920c      	str	r2, [sp, #48]	@ 0x30
 80033b0:	9309      	str	r3, [sp, #36]	@ 0x24
 80033b2:	f000 fa05 	bl	80037c0 <_Bfree>
 80033b6:	9b07      	ldr	r3, [sp, #28]
 80033b8:	9a0c      	ldr	r2, [sp, #48]	@ 0x30
 80033ba:	9e00      	ldr	r6, [sp, #0]
 80033bc:	ea42 0103 	orr.w	r1, r2, r3
 80033c0:	9b06      	ldr	r3, [sp, #24]
 80033c2:	4319      	orrs	r1, r3
 80033c4:	9b09      	ldr	r3, [sp, #36]	@ 0x24
 80033c6:	d10d      	bne.n	80033e4 <_dtoa_r+0xa44>
 80033c8:	2b39      	cmp	r3, #57	@ 0x39
 80033ca:	d027      	beq.n	800341c <_dtoa_r+0xa7c>
 80033cc:	9a04      	ldr	r2, [sp, #16]
 80033ce:	2a00      	cmp	r2, #0
 80033d0:	dd01      	ble.n	80033d6 <_dtoa_r+0xa36>
 80033d2:	9b03      	ldr	r3, [sp, #12]
 80033d4:	3331      	adds	r3, #49	@ 0x31
 80033d6:	f88b 3000 	strb.w	r3, [fp]
 80033da:	e52e      	b.n	8002e3a <_dtoa_r+0x49a>
 80033dc:	4628      	mov	r0, r5
 80033de:	e7b9      	b.n	8003354 <_dtoa_r+0x9b4>
 80033e0:	2201      	movs	r2, #1
 80033e2:	e7e2      	b.n	80033aa <_dtoa_r+0xa0a>
 80033e4:	9904      	ldr	r1, [sp, #16]
 80033e6:	2900      	cmp	r1, #0
 80033e8:	db04      	blt.n	80033f4 <_dtoa_r+0xa54>
 80033ea:	9807      	ldr	r0, [sp, #28]
 80033ec:	4301      	orrs	r1, r0
 80033ee:	9806      	ldr	r0, [sp, #24]
 80033f0:	4301      	orrs	r1, r0
 80033f2:	d120      	bne.n	8003436 <_dtoa_r+0xa96>
 80033f4:	2a00      	cmp	r2, #0
 80033f6:	ddee      	ble.n	80033d6 <_dtoa_r+0xa36>
 80033f8:	9902      	ldr	r1, [sp, #8]
 80033fa:	9300      	str	r3, [sp, #0]
 80033fc:	2201      	movs	r2, #1
 80033fe:	4648      	mov	r0, r9
 8003400:	f000 fba4 	bl	8003b4c <__lshift>
 8003404:	4621      	mov	r1, r4
 8003406:	9002      	str	r0, [sp, #8]
 8003408:	f000 fc0c 	bl	8003c24 <__mcmp>
 800340c:	2800      	cmp	r0, #0
 800340e:	9b00      	ldr	r3, [sp, #0]
 8003410:	dc02      	bgt.n	8003418 <_dtoa_r+0xa78>
 8003412:	d1e0      	bne.n	80033d6 <_dtoa_r+0xa36>
 8003414:	07da      	lsls	r2, r3, #31
 8003416:	d5de      	bpl.n	80033d6 <_dtoa_r+0xa36>
 8003418:	2b39      	cmp	r3, #57	@ 0x39
 800341a:	d1da      	bne.n	80033d2 <_dtoa_r+0xa32>
 800341c:	2339      	movs	r3, #57	@ 0x39
 800341e:	f88b 3000 	strb.w	r3, [fp]
 8003422:	4633      	mov	r3, r6
 8003424:	461e      	mov	r6, r3
 8003426:	3b01      	subs	r3, #1
 8003428:	f816 2c01 	ldrb.w	r2, [r6, #-1]
 800342c:	2a39      	cmp	r2, #57	@ 0x39
 800342e:	d04e      	beq.n	80034ce <_dtoa_r+0xb2e>
 8003430:	3201      	adds	r2, #1
 8003432:	701a      	strb	r2, [r3, #0]
 8003434:	e501      	b.n	8002e3a <_dtoa_r+0x49a>
 8003436:	2a00      	cmp	r2, #0
 8003438:	dd03      	ble.n	8003442 <_dtoa_r+0xaa2>
 800343a:	2b39      	cmp	r3, #57	@ 0x39
 800343c:	d0ee      	beq.n	800341c <_dtoa_r+0xa7c>
 800343e:	3301      	adds	r3, #1
 8003440:	e7c9      	b.n	80033d6 <_dtoa_r+0xa36>
 8003442:	9a00      	ldr	r2, [sp, #0]
 8003444:	9908      	ldr	r1, [sp, #32]
 8003446:	f802 3c01 	strb.w	r3, [r2, #-1]
 800344a:	428a      	cmp	r2, r1
 800344c:	d028      	beq.n	80034a0 <_dtoa_r+0xb00>
 800344e:	9902      	ldr	r1, [sp, #8]
 8003450:	2300      	movs	r3, #0
 8003452:	220a      	movs	r2, #10
 8003454:	4648      	mov	r0, r9
 8003456:	f000 f9d5 	bl	8003804 <__multadd>
 800345a:	42af      	cmp	r7, r5
 800345c:	9002      	str	r0, [sp, #8]
 800345e:	f04f 0300 	mov.w	r3, #0
 8003462:	f04f 020a 	mov.w	r2, #10
 8003466:	4639      	mov	r1, r7
 8003468:	4648      	mov	r0, r9
 800346a:	d107      	bne.n	800347c <_dtoa_r+0xadc>
 800346c:	f000 f9ca 	bl	8003804 <__multadd>
 8003470:	4607      	mov	r7, r0
 8003472:	4605      	mov	r5, r0
 8003474:	9b00      	ldr	r3, [sp, #0]
 8003476:	3301      	adds	r3, #1
 8003478:	9300      	str	r3, [sp, #0]
 800347a:	e777      	b.n	800336c <_dtoa_r+0x9cc>
 800347c:	f000 f9c2 	bl	8003804 <__multadd>
 8003480:	4629      	mov	r1, r5
 8003482:	4607      	mov	r7, r0
 8003484:	2300      	movs	r3, #0
 8003486:	220a      	movs	r2, #10
 8003488:	4648      	mov	r0, r9
 800348a:	f000 f9bb 	bl	8003804 <__multadd>
 800348e:	4605      	mov	r5, r0
 8003490:	e7f0      	b.n	8003474 <_dtoa_r+0xad4>
 8003492:	f1bb 0f00 	cmp.w	fp, #0
 8003496:	bfcc      	ite	gt
 8003498:	465e      	movgt	r6, fp
 800349a:	2601      	movle	r6, #1
 800349c:	4456      	add	r6, sl
 800349e:	2700      	movs	r7, #0
 80034a0:	9902      	ldr	r1, [sp, #8]
 80034a2:	9300      	str	r3, [sp, #0]
 80034a4:	2201      	movs	r2, #1
 80034a6:	4648      	mov	r0, r9
 80034a8:	f000 fb50 	bl	8003b4c <__lshift>
 80034ac:	4621      	mov	r1, r4
 80034ae:	9002      	str	r0, [sp, #8]
 80034b0:	f000 fbb8 	bl	8003c24 <__mcmp>
 80034b4:	2800      	cmp	r0, #0
 80034b6:	dcb4      	bgt.n	8003422 <_dtoa_r+0xa82>
 80034b8:	d102      	bne.n	80034c0 <_dtoa_r+0xb20>
 80034ba:	9b00      	ldr	r3, [sp, #0]
 80034bc:	07db      	lsls	r3, r3, #31
 80034be:	d4b0      	bmi.n	8003422 <_dtoa_r+0xa82>
 80034c0:	4633      	mov	r3, r6
 80034c2:	461e      	mov	r6, r3
 80034c4:	f813 2d01 	ldrb.w	r2, [r3, #-1]!
 80034c8:	2a30      	cmp	r2, #48	@ 0x30
 80034ca:	d0fa      	beq.n	80034c2 <_dtoa_r+0xb22>
 80034cc:	e4b5      	b.n	8002e3a <_dtoa_r+0x49a>
 80034ce:	459a      	cmp	sl, r3
 80034d0:	d1a8      	bne.n	8003424 <_dtoa_r+0xa84>
 80034d2:	2331      	movs	r3, #49	@ 0x31
 80034d4:	f108 0801 	add.w	r8, r8, #1
 80034d8:	f88a 3000 	strb.w	r3, [sl]
 80034dc:	e4ad      	b.n	8002e3a <_dtoa_r+0x49a>
 80034de:	9b21      	ldr	r3, [sp, #132]	@ 0x84
 80034e0:	f8df a058 	ldr.w	sl, [pc, #88]	@ 800353c <_dtoa_r+0xb9c>
 80034e4:	b11b      	cbz	r3, 80034ee <_dtoa_r+0xb4e>
 80034e6:	f10a 0308 	add.w	r3, sl, #8
 80034ea:	9a21      	ldr	r2, [sp, #132]	@ 0x84
 80034ec:	6013      	str	r3, [r2, #0]
 80034ee:	4650      	mov	r0, sl
 80034f0:	b017      	add	sp, #92	@ 0x5c
 80034f2:	e8bd 8ff0 	ldmia.w	sp!, {r4, r5, r6, r7, r8, r9, sl, fp, pc}
 80034f6:	9b07      	ldr	r3, [sp, #28]
 80034f8:	2b01      	cmp	r3, #1
 80034fa:	f77f ae2e 	ble.w	800315a <_dtoa_r+0x7ba>
 80034fe:	9b0d      	ldr	r3, [sp, #52]	@ 0x34
 8003500:	9308      	str	r3, [sp, #32]
 8003502:	2001      	movs	r0, #1
 8003504:	e64d      	b.n	80031a2 <_dtoa_r+0x802>
 8003506:	f1bb 0f00 	cmp.w	fp, #0
 800350a:	f77f aed9 	ble.w	80032c0 <_dtoa_r+0x920>
 800350e:	4656      	mov	r6, sl
 8003510:	9802      	ldr	r0, [sp, #8]
 8003512:	4621      	mov	r1, r4
 8003514:	f7ff f9bb 	bl	800288e <quorem>
 8003518:	f100 0330 	add.w	r3, r0, #48	@ 0x30
 800351c:	f806 3b01 	strb.w	r3, [r6], #1
 8003520:	eba6 020a 	sub.w	r2, r6, sl
 8003524:	4593      	cmp	fp, r2
 8003526:	ddb4      	ble.n	8003492 <_dtoa_r+0xaf2>
 8003528:	9902      	ldr	r1, [sp, #8]
 800352a:	2300      	movs	r3, #0
 800352c:	220a      	movs	r2, #10
 800352e:	4648      	mov	r0, r9
 8003530:	f000 f968 	bl	8003804 <__multadd>
 8003534:	9002      	str	r0, [sp, #8]
 8003536:	e7eb      	b.n	8003510 <_dtoa_r+0xb70>
 8003538:	080046a0 	.word	0x080046a0
 800353c:	08004624 	.word	0x08004624

08003540 <_free_r>:
 8003540:	b538      	push	{r3, r4, r5, lr}
 8003542:	4605      	mov	r5, r0
 8003544:	2900      	cmp	r1, #0
 8003546:	d041      	beq.n	80035cc <_free_r+0x8c>
 8003548:	f851 3c04 	ldr.w	r3, [r1, #-4]
 800354c:	1f0c      	subs	r4, r1, #4
 800354e:	2b00      	cmp	r3, #0
 8003550:	bfb8      	it	lt
 8003552:	18e4      	addlt	r4, r4, r3
 8003554:	f000 f8e8 	bl	8003728 <__malloc_lock>
 8003558:	4a1d      	ldr	r2, [pc, #116]	@ (80035d0 <_free_r+0x90>)
 800355a:	6813      	ldr	r3, [r2, #0]
 800355c:	b933      	cbnz	r3, 800356c <_free_r+0x2c>
 800355e:	6063      	str	r3, [r4, #4]
 8003560:	6014      	str	r4, [r2, #0]
 8003562:	4628      	mov	r0, r5
 8003564:	e8bd 4038 	ldmia.w	sp!, {r3, r4, r5, lr}
 8003568:	f000 b8e4 	b.w	8003734 <__malloc_unlock>
 800356c:	42a3      	cmp	r3, r4
 800356e:	d908      	bls.n	8003582 <_free_r+0x42>
 8003570:	6820      	ldr	r0, [r4, #0]
 8003572:	1821      	adds	r1, r4, r0
 8003574:	428b      	cmp	r3, r1
 8003576:	bf01      	itttt	eq
 8003578:	6819      	ldreq	r1, [r3, #0]
 800357a:	685b      	ldreq	r3, [r3, #4]
 800357c:	1809      	addeq	r1, r1, r0
 800357e:	6021      	streq	r1, [r4, #0]
 8003580:	e7ed      	b.n	800355e <_free_r+0x1e>
 8003582:	461a      	mov	r2, r3
 8003584:	685b      	ldr	r3, [r3, #4]
 8003586:	b10b      	cbz	r3, 800358c <_free_r+0x4c>
 8003588:	42a3      	cmp	r3, r4
 800358a:	d9fa      	bls.n	8003582 <_free_r+0x42>
 800358c:	6811      	ldr	r1, [r2, #0]
 800358e:	1850      	adds	r0, r2, r1
 8003590:	42a0      	cmp	r0, r4
 8003592:	d10b      	bne.n	80035ac <_free_r+0x6c>
 8003594:	6820      	ldr	r0, [r4, #0]
 8003596:	4401      	add	r1, r0
 8003598:	1850      	adds	r0, r2, r1
 800359a:	4283      	cmp	r3, r0
 800359c:	6011      	str	r1, [r2, #0]
 800359e:	d1e0      	bne.n	8003562 <_free_r+0x22>
 80035a0:	6818      	ldr	r0, [r3, #0]
 80035a2:	685b      	ldr	r3, [r3, #4]
 80035a4:	6053      	str	r3, [r2, #4]
 80035a6:	4408      	add	r0, r1
 80035a8:	6010      	str	r0, [r2, #0]
 80035aa:	e7da      	b.n	8003562 <_free_r+0x22>
 80035ac:	d902      	bls.n	80035b4 <_free_r+0x74>
 80035ae:	230c      	movs	r3, #12
 80035b0:	602b      	str	r3, [r5, #0]
 80035b2:	e7d6      	b.n	8003562 <_free_r+0x22>
 80035b4:	6820      	ldr	r0, [r4, #0]
 80035b6:	1821      	adds	r1, r4, r0
 80035b8:	428b      	cmp	r3, r1
 80035ba:	bf04      	itt	eq
 80035bc:	6819      	ldreq	r1, [r3, #0]
 80035be:	685b      	ldreq	r3, [r3, #4]
 80035c0:	6063      	str	r3, [r4, #4]
 80035c2:	bf04      	itt	eq
 80035c4:	1809      	addeq	r1, r1, r0
 80035c6:	6021      	streq	r1, [r4, #0]
 80035c8:	6054      	str	r4, [r2, #4]
 80035ca:	e7ca      	b.n	8003562 <_free_r+0x22>
 80035cc:	bd38      	pop	{r3, r4, r5, pc}
 80035ce:	bf00      	nop
 80035d0:	20000354 	.word	0x20000354

080035d4 <malloc>:
 80035d4:	4b02      	ldr	r3, [pc, #8]	@ (80035e0 <malloc+0xc>)
 80035d6:	4601      	mov	r1, r0
 80035d8:	6818      	ldr	r0, [r3, #0]
 80035da:	f000 b825 	b.w	8003628 <_malloc_r>
 80035de:	bf00      	nop
 80035e0:	2000000c 	.word	0x2000000c

080035e4 <sbrk_aligned>:
 80035e4:	b570      	push	{r4, r5, r6, lr}
 80035e6:	4e0f      	ldr	r6, [pc, #60]	@ (8003624 <sbrk_aligned+0x40>)
 80035e8:	460c      	mov	r4, r1
 80035ea:	6831      	ldr	r1, [r6, #0]
 80035ec:	4605      	mov	r5, r0
 80035ee:	b911      	cbnz	r1, 80035f6 <sbrk_aligned+0x12>
 80035f0:	f000 fccc 	bl	8003f8c <_sbrk_r>
 80035f4:	6030      	str	r0, [r6, #0]
 80035f6:	4621      	mov	r1, r4
 80035f8:	4628      	mov	r0, r5
 80035fa:	f000 fcc7 	bl	8003f8c <_sbrk_r>
 80035fe:	1c43      	adds	r3, r0, #1
 8003600:	d103      	bne.n	800360a <sbrk_aligned+0x26>
 8003602:	f04f 34ff 	mov.w	r4, #4294967295
 8003606:	4620      	mov	r0, r4
 8003608:	bd70      	pop	{r4, r5, r6, pc}
 800360a:	1cc4      	adds	r4, r0, #3
 800360c:	f024 0403 	bic.w	r4, r4, #3
 8003610:	42a0      	cmp	r0, r4
 8003612:	d0f8      	beq.n	8003606 <sbrk_aligned+0x22>
 8003614:	1a21      	subs	r1, r4, r0
 8003616:	4628      	mov	r0, r5
 8003618:	f000 fcb8 	bl	8003f8c <_sbrk_r>
 800361c:	3001      	adds	r0, #1
 800361e:	d1f2      	bne.n	8003606 <sbrk_aligned+0x22>
 8003620:	e7ef      	b.n	8003602 <sbrk_aligned+0x1e>
 8003622:	bf00      	nop
 8003624:	20000350 	.word	0x20000350

08003628 <_malloc_r>:
 8003628:	e92d 43f8 	stmdb	sp!, {r3, r4, r5, r6, r7, r8, r9, lr}
 800362c:	1ccd      	adds	r5, r1, #3
 800362e:	f025 0503 	bic.w	r5, r5, #3
 8003632:	3508      	adds	r5, #8
 8003634:	2d0c      	cmp	r5, #12
 8003636:	bf38      	it	cc
 8003638:	250c      	movcc	r5, #12
 800363a:	2d00      	cmp	r5, #0
 800363c:	4606      	mov	r6, r0
 800363e:	db01      	blt.n	8003644 <_malloc_r+0x1c>
 8003640:	42a9      	cmp	r1, r5
 8003642:	d904      	bls.n	800364e <_malloc_r+0x26>
 8003644:	230c      	movs	r3, #12
 8003646:	6033      	str	r3, [r6, #0]
 8003648:	2000      	movs	r0, #0
 800364a:	e8bd 83f8 	ldmia.w	sp!, {r3, r4, r5, r6, r7, r8, r9, pc}
 800364e:	f8df 80d4 	ldr.w	r8, [pc, #212]	@ 8003724 <_malloc_r+0xfc>
 8003652:	f000 f869 	bl	8003728 <__malloc_lock>
 8003656:	f8d8 3000 	ldr.w	r3, [r8]
 800365a:	461c      	mov	r4, r3
 800365c:	bb44      	cbnz	r4, 80036b0 <_malloc_r+0x88>
 800365e:	4629      	mov	r1, r5
 8003660:	4630      	mov	r0, r6
 8003662:	f7ff ffbf 	bl	80035e4 <sbrk_aligned>
 8003666:	1c43      	adds	r3, r0, #1
 8003668:	4604      	mov	r4, r0
 800366a:	d158      	bne.n	800371e <_malloc_r+0xf6>
 800366c:	f8d8 4000 	ldr.w	r4, [r8]
 8003670:	4627      	mov	r7, r4
 8003672:	2f00      	cmp	r7, #0
 8003674:	d143      	bne.n	80036fe <_malloc_r+0xd6>
 8003676:	2c00      	cmp	r4, #0
 8003678:	d04b      	beq.n	8003712 <_malloc_r+0xea>
 800367a:	6823      	ldr	r3, [r4, #0]
 800367c:	4639      	mov	r1, r7
 800367e:	4630      	mov	r0, r6
 8003680:	eb04 0903 	add.w	r9, r4, r3
 8003684:	f000 fc82 	bl	8003f8c <_sbrk_r>
 8003688:	4581      	cmp	r9, r0
 800368a:	d142      	bne.n	8003712 <_malloc_r+0xea>
 800368c:	6821      	ldr	r1, [r4, #0]
 800368e:	1a6d      	subs	r5, r5, r1
 8003690:	4629      	mov	r1, r5
 8003692:	4630      	mov	r0, r6
 8003694:	f7ff ffa6 	bl	80035e4 <sbrk_aligned>
 8003698:	3001      	adds	r0, #1
 800369a:	d03a      	beq.n	8003712 <_malloc_r+0xea>
 800369c:	6823      	ldr	r3, [r4, #0]
 800369e:	442b      	add	r3, r5
 80036a0:	6023      	str	r3, [r4, #0]
 80036a2:	f8d8 3000 	ldr.w	r3, [r8]
 80036a6:	685a      	ldr	r2, [r3, #4]
 80036a8:	bb62      	cbnz	r2, 8003704 <_malloc_r+0xdc>
 80036aa:	f8c8 7000 	str.w	r7, [r8]
 80036ae:	e00f      	b.n	80036d0 <_malloc_r+0xa8>
 80036b0:	6822      	ldr	r2, [r4, #0]
 80036b2:	1b52      	subs	r2, r2, r5
 80036b4:	d420      	bmi.n	80036f8 <_malloc_r+0xd0>
 80036b6:	2a0b      	cmp	r2, #11
 80036b8:	d917      	bls.n	80036ea <_malloc_r+0xc2>
 80036ba:	1961      	adds	r1, r4, r5
 80036bc:	42a3      	cmp	r3, r4
 80036be:	6025      	str	r5, [r4, #0]
 80036c0:	bf18      	it	ne
 80036c2:	6059      	strne	r1, [r3, #4]
 80036c4:	6863      	ldr	r3, [r4, #4]
 80036c6:	bf08      	it	eq
 80036c8:	f8c8 1000 	streq.w	r1, [r8]
 80036cc:	5162      	str	r2, [r4, r5]
 80036ce:	604b      	str	r3, [r1, #4]
 80036d0:	4630      	mov	r0, r6
 80036d2:	f000 f82f 	bl	8003734 <__malloc_unlock>
 80036d6:	f104 000b 	add.w	r0, r4, #11
 80036da:	1d23      	adds	r3, r4, #4
 80036dc:	f020 0007 	bic.w	r0, r0, #7
 80036e0:	1ac2      	subs	r2, r0, r3
 80036e2:	bf1c      	itt	ne
 80036e4:	1a1b      	subne	r3, r3, r0
 80036e6:	50a3      	strne	r3, [r4, r2]
 80036e8:	e7af      	b.n	800364a <_malloc_r+0x22>
 80036ea:	6862      	ldr	r2, [r4, #4]
 80036ec:	42a3      	cmp	r3, r4
 80036ee:	bf0c      	ite	eq
 80036f0:	f8c8 2000 	streq.w	r2, [r8]
 80036f4:	605a      	strne	r2, [r3, #4]
 80036f6:	e7eb      	b.n	80036d0 <_malloc_r+0xa8>
 80036f8:	4623      	mov	r3, r4
 80036fa:	6864      	ldr	r4, [r4, #4]
 80036fc:	e7ae      	b.n	800365c <_malloc_r+0x34>
 80036fe:	463c      	mov	r4, r7
 8003700:	687f      	ldr	r7, [r7, #4]
 8003702:	e7b6      	b.n	8003672 <_malloc_r+0x4a>
 8003704:	461a      	mov	r2, r3
 8003706:	685b      	ldr	r3, [r3, #4]
 8003708:	42a3      	cmp	r3, r4
 800370a:	d1fb      	bne.n	8003704 <_malloc_r+0xdc>
 800370c:	2300      	movs	r3, #0
 800370e:	6053      	str	r3, [r2, #4]
 8003710:	e7de      	b.n	80036d0 <_malloc_r+0xa8>
 8003712:	230c      	movs	r3, #12
 8003714:	6033      	str	r3, [r6, #0]
 8003716:	4630      	mov	r0, r6
 8003718:	f000 f80c 	bl	8003734 <__malloc_unlock>
 800371c:	e794      	b.n	8003648 <_malloc_r+0x20>
 800371e:	6005      	str	r5, [r0, #0]
 8003720:	e7d6      	b.n	80036d0 <_malloc_r+0xa8>
 8003722:	bf00      	nop
 8003724:	20000354 	.word	0x20000354

08003728 <__malloc_lock>:
 8003728:	4801      	ldr	r0, [pc, #4]	@ (8003730 <__malloc_lock+0x8>)
 800372a:	f7ff b8ae 	b.w	800288a <__retarget_lock_acquire_recursive>
 800372e:	bf00      	nop
 8003730:	2000034c 	.word	0x2000034c

08003734 <__malloc_unlock>:
 8003734:	4801      	ldr	r0, [pc, #4]	@ (800373c <__malloc_unlock+0x8>)
 8003736:	f7ff b8a9 	b.w	800288c <__retarget_lock_release_recursive>
 800373a:	bf00      	nop
 800373c:	2000034c 	.word	0x2000034c

08003740 <_Balloc>:
 8003740:	b570      	push	{r4, r5, r6, lr}
 8003742:	69c6      	ldr	r6, [r0, #28]
 8003744:	4604      	mov	r4, r0
 8003746:	460d      	mov	r5, r1
 8003748:	b976      	cbnz	r6, 8003768 <_Balloc+0x28>
 800374a:	2010      	movs	r0, #16
 800374c:	f7ff ff42 	bl	80035d4 <malloc>
 8003750:	4602      	mov	r2, r0
 8003752:	61e0      	str	r0, [r4, #28]
 8003754:	b920      	cbnz	r0, 8003760 <_Balloc+0x20>
 8003756:	4b18      	ldr	r3, [pc, #96]	@ (80037b8 <_Balloc+0x78>)
 8003758:	4818      	ldr	r0, [pc, #96]	@ (80037bc <_Balloc+0x7c>)
 800375a:	216b      	movs	r1, #107	@ 0x6b
 800375c:	f000 fc34 	bl	8003fc8 <__assert_func>
 8003760:	e9c0 6601 	strd	r6, r6, [r0, #4]
 8003764:	6006      	str	r6, [r0, #0]
 8003766:	60c6      	str	r6, [r0, #12]
 8003768:	69e6      	ldr	r6, [r4, #28]
 800376a:	68f3      	ldr	r3, [r6, #12]
 800376c:	b183      	cbz	r3, 8003790 <_Balloc+0x50>
 800376e:	69e3      	ldr	r3, [r4, #28]
 8003770:	68db      	ldr	r3, [r3, #12]
 8003772:	f853 0025 	ldr.w	r0, [r3, r5, lsl #2]
 8003776:	b9b8      	cbnz	r0, 80037a8 <_Balloc+0x68>
 8003778:	2101      	movs	r1, #1
 800377a:	fa01 f605 	lsl.w	r6, r1, r5
 800377e:	1d72      	adds	r2, r6, #5
 8003780:	0092      	lsls	r2, r2, #2
 8003782:	4620      	mov	r0, r4
 8003784:	f000 fc3e 	bl	8004004 <_calloc_r>
 8003788:	b160      	cbz	r0, 80037a4 <_Balloc+0x64>
 800378a:	e9c0 5601 	strd	r5, r6, [r0, #4]
 800378e:	e00e      	b.n	80037ae <_Balloc+0x6e>
 8003790:	2221      	movs	r2, #33	@ 0x21
 8003792:	2104      	movs	r1, #4
 8003794:	4620      	mov	r0, r4
 8003796:	f000 fc35 	bl	8004004 <_calloc_r>
 800379a:	69e3      	ldr	r3, [r4, #28]
 800379c:	60f0      	str	r0, [r6, #12]
 800379e:	68db      	ldr	r3, [r3, #12]
 80037a0:	2b00      	cmp	r3, #0
 80037a2:	d1e4      	bne.n	800376e <_Balloc+0x2e>
 80037a4:	2000      	movs	r0, #0
 80037a6:	bd70      	pop	{r4, r5, r6, pc}
 80037a8:	6802      	ldr	r2, [r0, #0]
 80037aa:	f843 2025 	str.w	r2, [r3, r5, lsl #2]
 80037ae:	2300      	movs	r3, #0
 80037b0:	e9c0 3303 	strd	r3, r3, [r0, #12]
 80037b4:	e7f7      	b.n	80037a6 <_Balloc+0x66>
 80037b6:	bf00      	nop
 80037b8:	08004631 	.word	0x08004631
 80037bc:	080046b1 	.word	0x080046b1

080037c0 <_Bfree>:
 80037c0:	b570      	push	{r4, r5, r6, lr}
 80037c2:	69c6      	ldr	r6, [r0, #28]
 80037c4:	4605      	mov	r5, r0
 80037c6:	460c      	mov	r4, r1
 80037c8:	b976      	cbnz	r6, 80037e8 <_Bfree+0x28>
 80037ca:	2010      	movs	r0, #16
 80037cc:	f7ff ff02 	bl	80035d4 <malloc>
 80037d0:	4602      	mov	r2, r0
 80037d2:	61e8      	str	r0, [r5, #28]
 80037d4:	b920      	cbnz	r0, 80037e0 <_Bfree+0x20>
 80037d6:	4b09      	ldr	r3, [pc, #36]	@ (80037fc <_Bfree+0x3c>)
 80037d8:	4809      	ldr	r0, [pc, #36]	@ (8003800 <_Bfree+0x40>)
 80037da:	218f      	movs	r1, #143	@ 0x8f
 80037dc:	f000 fbf4 	bl	8003fc8 <__assert_func>
 80037e0:	e9c0 6601 	strd	r6, r6, [r0, #4]
 80037e4:	6006      	str	r6, [r0, #0]
 80037e6:	60c6      	str	r6, [r0, #12]
 80037e8:	b13c      	cbz	r4, 80037fa <_Bfree+0x3a>
 80037ea:	69eb      	ldr	r3, [r5, #28]
 80037ec:	6862      	ldr	r2, [r4, #4]
 80037ee:	68db      	ldr	r3, [r3, #12]
 80037f0:	f853 1022 	ldr.w	r1, [r3, r2, lsl #2]
 80037f4:	6021      	str	r1, [r4, #0]
 80037f6:	f843 4022 	str.w	r4, [r3, r2, lsl #2]
 80037fa:	bd70      	pop	{r4, r5, r6, pc}
 80037fc:	08004631 	.word	0x08004631
 8003800:	080046b1 	.word	0x080046b1

08003804 <__multadd>:
 8003804:	e92d 41f0 	stmdb	sp!, {r4, r5, r6, r7, r8, lr}
 8003808:	690d      	ldr	r5, [r1, #16]
 800380a:	4607      	mov	r7, r0
 800380c:	460c      	mov	r4, r1
 800380e:	461e      	mov	r6, r3
 8003810:	f101 0c14 	add.w	ip, r1, #20
 8003814:	2000      	movs	r0, #0
 8003816:	f8dc 3000 	ldr.w	r3, [ip]
 800381a:	b299      	uxth	r1, r3
 800381c:	fb02 6101 	mla	r1, r2, r1, r6
 8003820:	0c1e      	lsrs	r6, r3, #16
 8003822:	0c0b      	lsrs	r3, r1, #16
 8003824:	fb02 3306 	mla	r3, r2, r6, r3
 8003828:	b289      	uxth	r1, r1
 800382a:	3001      	adds	r0, #1
 800382c:	eb01 4103 	add.w	r1, r1, r3, lsl #16
 8003830:	4285      	cmp	r5, r0
 8003832:	f84c 1b04 	str.w	r1, [ip], #4
 8003836:	ea4f 4613 	mov.w	r6, r3, lsr #16
 800383a:	dcec      	bgt.n	8003816 <__multadd+0x12>
 800383c:	b30e      	cbz	r6, 8003882 <__multadd+0x7e>
 800383e:	68a3      	ldr	r3, [r4, #8]
 8003840:	42ab      	cmp	r3, r5
 8003842:	dc19      	bgt.n	8003878 <__multadd+0x74>
 8003844:	6861      	ldr	r1, [r4, #4]
 8003846:	4638      	mov	r0, r7
 8003848:	3101      	adds	r1, #1
 800384a:	f7ff ff79 	bl	8003740 <_Balloc>
 800384e:	4680      	mov	r8, r0
 8003850:	b928      	cbnz	r0, 800385e <__multadd+0x5a>
 8003852:	4602      	mov	r2, r0
 8003854:	4b0c      	ldr	r3, [pc, #48]	@ (8003888 <__multadd+0x84>)
 8003856:	480d      	ldr	r0, [pc, #52]	@ (800388c <__multadd+0x88>)
 8003858:	21ba      	movs	r1, #186	@ 0xba
 800385a:	f000 fbb5 	bl	8003fc8 <__assert_func>
 800385e:	6922      	ldr	r2, [r4, #16]
 8003860:	3202      	adds	r2, #2
 8003862:	f104 010c 	add.w	r1, r4, #12
 8003866:	0092      	lsls	r2, r2, #2
 8003868:	300c      	adds	r0, #12
 800386a:	f000 fb9f 	bl	8003fac <memcpy>
 800386e:	4621      	mov	r1, r4
 8003870:	4638      	mov	r0, r7
 8003872:	f7ff ffa5 	bl	80037c0 <_Bfree>
 8003876:	4644      	mov	r4, r8
 8003878:	eb04 0385 	add.w	r3, r4, r5, lsl #2
 800387c:	3501      	adds	r5, #1
 800387e:	615e      	str	r6, [r3, #20]
 8003880:	6125      	str	r5, [r4, #16]
 8003882:	4620      	mov	r0, r4
 8003884:	e8bd 81f0 	ldmia.w	sp!, {r4, r5, r6, r7, r8, pc}
 8003888:	080046a0 	.word	0x080046a0
 800388c:	080046b1 	.word	0x080046b1

08003890 <__hi0bits>:
 8003890:	f5b0 3f80 	cmp.w	r0, #65536	@ 0x10000
 8003894:	4603      	mov	r3, r0
 8003896:	bf36      	itet	cc
 8003898:	0403      	lslcc	r3, r0, #16
 800389a:	2000      	movcs	r0, #0
 800389c:	2010      	movcc	r0, #16
 800389e:	f1b3 7f80 	cmp.w	r3, #16777216	@ 0x1000000
 80038a2:	bf3c      	itt	cc
 80038a4:	021b      	lslcc	r3, r3, #8
 80038a6:	3008      	addcc	r0, #8
 80038a8:	f1b3 5f80 	cmp.w	r3, #268435456	@ 0x10000000
 80038ac:	bf3c      	itt	cc
 80038ae:	011b      	lslcc	r3, r3, #4
 80038b0:	3004      	addcc	r0, #4
 80038b2:	f1b3 4f80 	cmp.w	r3, #1073741824	@ 0x40000000
 80038b6:	bf3c      	itt	cc
 80038b8:	009b      	lslcc	r3, r3, #2
 80038ba:	3002      	addcc	r0, #2
 80038bc:	2b00      	cmp	r3, #0
 80038be:	db05      	blt.n	80038cc <__hi0bits+0x3c>
 80038c0:	f013 4f80 	tst.w	r3, #1073741824	@ 0x40000000
 80038c4:	f100 0001 	add.w	r0, r0, #1
 80038c8:	bf08      	it	eq
 80038ca:	2020      	moveq	r0, #32
 80038cc:	4770      	bx	lr

080038ce <__lo0bits>:
 80038ce:	6803      	ldr	r3, [r0, #0]
 80038d0:	4602      	mov	r2, r0
 80038d2:	f013 0007 	ands.w	r0, r3, #7
 80038d6:	d00b      	beq.n	80038f0 <__lo0bits+0x22>
 80038d8:	07d9      	lsls	r1, r3, #31
 80038da:	d421      	bmi.n	8003920 <__lo0bits+0x52>
 80038dc:	0798      	lsls	r0, r3, #30
 80038de:	bf49      	itett	mi
 80038e0:	085b      	lsrmi	r3, r3, #1
 80038e2:	089b      	lsrpl	r3, r3, #2
 80038e4:	2001      	movmi	r0, #1
 80038e6:	6013      	strmi	r3, [r2, #0]
 80038e8:	bf5c      	itt	pl
 80038ea:	6013      	strpl	r3, [r2, #0]
 80038ec:	2002      	movpl	r0, #2
 80038ee:	4770      	bx	lr
 80038f0:	b299      	uxth	r1, r3
 80038f2:	b909      	cbnz	r1, 80038f8 <__lo0bits+0x2a>
 80038f4:	0c1b      	lsrs	r3, r3, #16
 80038f6:	2010      	movs	r0, #16
 80038f8:	b2d9      	uxtb	r1, r3
 80038fa:	b909      	cbnz	r1, 8003900 <__lo0bits+0x32>
 80038fc:	3008      	adds	r0, #8
 80038fe:	0a1b      	lsrs	r3, r3, #8
 8003900:	0719      	lsls	r1, r3, #28
 8003902:	bf04      	itt	eq
 8003904:	091b      	lsreq	r3, r3, #4
 8003906:	3004      	addeq	r0, #4
 8003908:	0799      	lsls	r1, r3, #30
 800390a:	bf04      	itt	eq
 800390c:	089b      	lsreq	r3, r3, #2
 800390e:	3002      	addeq	r0, #2
 8003910:	07d9      	lsls	r1, r3, #31
 8003912:	d403      	bmi.n	800391c <__lo0bits+0x4e>
 8003914:	085b      	lsrs	r3, r3, #1
 8003916:	f100 0001 	add.w	r0, r0, #1
 800391a:	d003      	beq.n	8003924 <__lo0bits+0x56>
 800391c:	6013      	str	r3, [r2, #0]
 800391e:	4770      	bx	lr
 8003920:	2000      	movs	r0, #0
 8003922:	4770      	bx	lr
 8003924:	2020      	movs	r0, #32
 8003926:	4770      	bx	lr

08003928 <__i2b>:
 8003928:	b510      	push	{r4, lr}
 800392a:	460c      	mov	r4, r1
 800392c:	2101      	movs	r1, #1
 800392e:	f7ff ff07 	bl	8003740 <_Balloc>
 8003932:	4602      	mov	r2, r0
 8003934:	b928      	cbnz	r0, 8003942 <__i2b+0x1a>
 8003936:	4b05      	ldr	r3, [pc, #20]	@ (800394c <__i2b+0x24>)
 8003938:	4805      	ldr	r0, [pc, #20]	@ (8003950 <__i2b+0x28>)
 800393a:	f240 1145 	movw	r1, #325	@ 0x145
 800393e:	f000 fb43 	bl	8003fc8 <__assert_func>
 8003942:	2301      	movs	r3, #1
 8003944:	6144      	str	r4, [r0, #20]
 8003946:	6103      	str	r3, [r0, #16]
 8003948:	bd10      	pop	{r4, pc}
 800394a:	bf00      	nop
 800394c:	080046a0 	.word	0x080046a0
 8003950:	080046b1 	.word	0x080046b1

08003954 <__multiply>:
 8003954:	e92d 4ff0 	stmdb	sp!, {r4, r5, r6, r7, r8, r9, sl, fp, lr}
 8003958:	4617      	mov	r7, r2
 800395a:	690a      	ldr	r2, [r1, #16]
 800395c:	693b      	ldr	r3, [r7, #16]
 800395e:	429a      	cmp	r2, r3
 8003960:	bfa8      	it	ge
 8003962:	463b      	movge	r3, r7
 8003964:	4689      	mov	r9, r1
 8003966:	bfa4      	itt	ge
 8003968:	460f      	movge	r7, r1
 800396a:	4699      	movge	r9, r3
 800396c:	693d      	ldr	r5, [r7, #16]
 800396e:	f8d9 a010 	ldr.w	sl, [r9, #16]
 8003972:	68bb      	ldr	r3, [r7, #8]
 8003974:	6879      	ldr	r1, [r7, #4]
 8003976:	eb05 060a 	add.w	r6, r5, sl
 800397a:	42b3      	cmp	r3, r6
 800397c:	b085      	sub	sp, #20
 800397e:	bfb8      	it	lt
 8003980:	3101      	addlt	r1, #1
 8003982:	f7ff fedd 	bl	8003740 <_Balloc>
 8003986:	b930      	cbnz	r0, 8003996 <__multiply+0x42>
 8003988:	4602      	mov	r2, r0
 800398a:	4b41      	ldr	r3, [pc, #260]	@ (8003a90 <__multiply+0x13c>)
 800398c:	4841      	ldr	r0, [pc, #260]	@ (8003a94 <__multiply+0x140>)
 800398e:	f44f 71b1 	mov.w	r1, #354	@ 0x162
 8003992:	f000 fb19 	bl	8003fc8 <__assert_func>
 8003996:	f100 0414 	add.w	r4, r0, #20
 800399a:	eb04 0e86 	add.w	lr, r4, r6, lsl #2
 800399e:	4623      	mov	r3, r4
 80039a0:	2200      	movs	r2, #0
 80039a2:	4573      	cmp	r3, lr
 80039a4:	d320      	bcc.n	80039e8 <__multiply+0x94>
 80039a6:	f107 0814 	add.w	r8, r7, #20
 80039aa:	f109 0114 	add.w	r1, r9, #20
 80039ae:	eb08 0585 	add.w	r5, r8, r5, lsl #2
 80039b2:	eb01 038a 	add.w	r3, r1, sl, lsl #2
 80039b6:	9302      	str	r3, [sp, #8]
 80039b8:	1beb      	subs	r3, r5, r7
 80039ba:	3b15      	subs	r3, #21
 80039bc:	f023 0303 	bic.w	r3, r3, #3
 80039c0:	3304      	adds	r3, #4
 80039c2:	3715      	adds	r7, #21
 80039c4:	42bd      	cmp	r5, r7
 80039c6:	bf38      	it	cc
 80039c8:	2304      	movcc	r3, #4
 80039ca:	9301      	str	r3, [sp, #4]
 80039cc:	9b02      	ldr	r3, [sp, #8]
 80039ce:	9103      	str	r1, [sp, #12]
 80039d0:	428b      	cmp	r3, r1
 80039d2:	d80c      	bhi.n	80039ee <__multiply+0x9a>
 80039d4:	2e00      	cmp	r6, #0
 80039d6:	dd03      	ble.n	80039e0 <__multiply+0x8c>
 80039d8:	f85e 3d04 	ldr.w	r3, [lr, #-4]!
 80039dc:	2b00      	cmp	r3, #0
 80039de:	d055      	beq.n	8003a8c <__multiply+0x138>
 80039e0:	6106      	str	r6, [r0, #16]
 80039e2:	b005      	add	sp, #20
 80039e4:	e8bd 8ff0 	ldmia.w	sp!, {r4, r5, r6, r7, r8, r9, sl, fp, pc}
 80039e8:	f843 2b04 	str.w	r2, [r3], #4
 80039ec:	e7d9      	b.n	80039a2 <__multiply+0x4e>
 80039ee:	f8b1 a000 	ldrh.w	sl, [r1]
 80039f2:	f1ba 0f00 	cmp.w	sl, #0
 80039f6:	d01f      	beq.n	8003a38 <__multiply+0xe4>
 80039f8:	46c4      	mov	ip, r8
 80039fa:	46a1      	mov	r9, r4
 80039fc:	2700      	movs	r7, #0
 80039fe:	f85c 2b04 	ldr.w	r2, [ip], #4
 8003a02:	f8d9 3000 	ldr.w	r3, [r9]
 8003a06:	fa1f fb82 	uxth.w	fp, r2
 8003a0a:	b29b      	uxth	r3, r3
 8003a0c:	fb0a 330b 	mla	r3, sl, fp, r3
 8003a10:	443b      	add	r3, r7
 8003a12:	f8d9 7000 	ldr.w	r7, [r9]
 8003a16:	0c12      	lsrs	r2, r2, #16
 8003a18:	0c3f      	lsrs	r7, r7, #16
 8003a1a:	fb0a 7202 	mla	r2, sl, r2, r7
 8003a1e:	eb02 4213 	add.w	r2, r2, r3, lsr #16
 8003a22:	b29b      	uxth	r3, r3
 8003a24:	ea43 4302 	orr.w	r3, r3, r2, lsl #16
 8003a28:	4565      	cmp	r5, ip
 8003a2a:	f849 3b04 	str.w	r3, [r9], #4
 8003a2e:	ea4f 4712 	mov.w	r7, r2, lsr #16
 8003a32:	d8e4      	bhi.n	80039fe <__multiply+0xaa>
 8003a34:	9b01      	ldr	r3, [sp, #4]
 8003a36:	50e7      	str	r7, [r4, r3]
 8003a38:	9b03      	ldr	r3, [sp, #12]
 8003a3a:	f8b3 9002 	ldrh.w	r9, [r3, #2]
 8003a3e:	3104      	adds	r1, #4
 8003a40:	f1b9 0f00 	cmp.w	r9, #0
 8003a44:	d020      	beq.n	8003a88 <__multiply+0x134>
 8003a46:	6823      	ldr	r3, [r4, #0]
 8003a48:	4647      	mov	r7, r8
 8003a4a:	46a4      	mov	ip, r4
 8003a4c:	f04f 0a00 	mov.w	sl, #0
 8003a50:	f8b7 b000 	ldrh.w	fp, [r7]
 8003a54:	f8bc 2002 	ldrh.w	r2, [ip, #2]
 8003a58:	fb09 220b 	mla	r2, r9, fp, r2
 8003a5c:	4452      	add	r2, sl
 8003a5e:	b29b      	uxth	r3, r3
 8003a60:	ea43 4302 	orr.w	r3, r3, r2, lsl #16
 8003a64:	f84c 3b04 	str.w	r3, [ip], #4
 8003a68:	f857 3b04 	ldr.w	r3, [r7], #4
 8003a6c:	ea4f 4a13 	mov.w	sl, r3, lsr #16
 8003a70:	f8bc 3000 	ldrh.w	r3, [ip]
 8003a74:	fb09 330a 	mla	r3, r9, sl, r3
 8003a78:	eb03 4312 	add.w	r3, r3, r2, lsr #16
 8003a7c:	42bd      	cmp	r5, r7
 8003a7e:	ea4f 4a13 	mov.w	sl, r3, lsr #16
 8003a82:	d8e5      	bhi.n	8003a50 <__multiply+0xfc>
 8003a84:	9a01      	ldr	r2, [sp, #4]
 8003a86:	50a3      	str	r3, [r4, r2]
 8003a88:	3404      	adds	r4, #4
 8003a8a:	e79f      	b.n	80039cc <__multiply+0x78>
 8003a8c:	3e01      	subs	r6, #1
 8003a8e:	e7a1      	b.n	80039d4 <__multiply+0x80>
 8003a90:	080046a0 	.word	0x080046a0
 8003a94:	080046b1 	.word	0x080046b1

08003a98 <__pow5mult>:
 8003a98:	e92d 43f8 	stmdb	sp!, {r3, r4, r5, r6, r7, r8, r9, lr}
 8003a9c:	4615      	mov	r5, r2
 8003a9e:	f012 0203 	ands.w	r2, r2, #3
 8003aa2:	4607      	mov	r7, r0
 8003aa4:	460e      	mov	r6, r1
 8003aa6:	d007      	beq.n	8003ab8 <__pow5mult+0x20>
 8003aa8:	4c25      	ldr	r4, [pc, #148]	@ (8003b40 <__pow5mult+0xa8>)
 8003aaa:	3a01      	subs	r2, #1
 8003aac:	2300      	movs	r3, #0
 8003aae:	f854 2022 	ldr.w	r2, [r4, r2, lsl #2]
 8003ab2:	f7ff fea7 	bl	8003804 <__multadd>
 8003ab6:	4606      	mov	r6, r0
 8003ab8:	10ad      	asrs	r5, r5, #2
 8003aba:	d03d      	beq.n	8003b38 <__pow5mult+0xa0>
 8003abc:	69fc      	ldr	r4, [r7, #28]
 8003abe:	b97c      	cbnz	r4, 8003ae0 <__pow5mult+0x48>
 8003ac0:	2010      	movs	r0, #16
 8003ac2:	f7ff fd87 	bl	80035d4 <malloc>
 8003ac6:	4602      	mov	r2, r0
 8003ac8:	61f8      	str	r0, [r7, #28]
 8003aca:	b928      	cbnz	r0, 8003ad8 <__pow5mult+0x40>
 8003acc:	4b1d      	ldr	r3, [pc, #116]	@ (8003b44 <__pow5mult+0xac>)
 8003ace:	481e      	ldr	r0, [pc, #120]	@ (8003b48 <__pow5mult+0xb0>)
 8003ad0:	f240 11b3 	movw	r1, #435	@ 0x1b3
 8003ad4:	f000 fa78 	bl	8003fc8 <__assert_func>
 8003ad8:	e9c0 4401 	strd	r4, r4, [r0, #4]
 8003adc:	6004      	str	r4, [r0, #0]
 8003ade:	60c4      	str	r4, [r0, #12]
 8003ae0:	f8d7 801c 	ldr.w	r8, [r7, #28]
 8003ae4:	f8d8 4008 	ldr.w	r4, [r8, #8]
 8003ae8:	b94c      	cbnz	r4, 8003afe <__pow5mult+0x66>
 8003aea:	f240 2171 	movw	r1, #625	@ 0x271
 8003aee:	4638      	mov	r0, r7
 8003af0:	f7ff ff1a 	bl	8003928 <__i2b>
 8003af4:	2300      	movs	r3, #0
 8003af6:	f8c8 0008 	str.w	r0, [r8, #8]
 8003afa:	4604      	mov	r4, r0
 8003afc:	6003      	str	r3, [r0, #0]
 8003afe:	f04f 0900 	mov.w	r9, #0
 8003b02:	07eb      	lsls	r3, r5, #31
 8003b04:	d50a      	bpl.n	8003b1c <__pow5mult+0x84>
 8003b06:	4631      	mov	r1, r6
 8003b08:	4622      	mov	r2, r4
 8003b0a:	4638      	mov	r0, r7
 8003b0c:	f7ff ff22 	bl	8003954 <__multiply>
 8003b10:	4631      	mov	r1, r6
 8003b12:	4680      	mov	r8, r0
 8003b14:	4638      	mov	r0, r7
 8003b16:	f7ff fe53 	bl	80037c0 <_Bfree>
 8003b1a:	4646      	mov	r6, r8
 8003b1c:	106d      	asrs	r5, r5, #1
 8003b1e:	d00b      	beq.n	8003b38 <__pow5mult+0xa0>
 8003b20:	6820      	ldr	r0, [r4, #0]
 8003b22:	b938      	cbnz	r0, 8003b34 <__pow5mult+0x9c>
 8003b24:	4622      	mov	r2, r4
 8003b26:	4621      	mov	r1, r4
 8003b28:	4638      	mov	r0, r7
 8003b2a:	f7ff ff13 	bl	8003954 <__multiply>
 8003b2e:	6020      	str	r0, [r4, #0]
 8003b30:	f8c0 9000 	str.w	r9, [r0]
 8003b34:	4604      	mov	r4, r0
 8003b36:	e7e4      	b.n	8003b02 <__pow5mult+0x6a>
 8003b38:	4630      	mov	r0, r6
 8003b3a:	e8bd 83f8 	ldmia.w	sp!, {r3, r4, r5, r6, r7, r8, r9, pc}
 8003b3e:	bf00      	nop
 8003b40:	08004764 	.word	0x08004764
 8003b44:	08004631 	.word	0x08004631
 8003b48:	080046b1 	.word	0x080046b1

08003b4c <__lshift>:
 8003b4c:	e92d 47f0 	stmdb	sp!, {r4, r5, r6, r7, r8, r9, sl, lr}
 8003b50:	460c      	mov	r4, r1
 8003b52:	6849      	ldr	r1, [r1, #4]
 8003b54:	6923      	ldr	r3, [r4, #16]
 8003b56:	eb03 1862 	add.w	r8, r3, r2, asr #5
 8003b5a:	68a3      	ldr	r3, [r4, #8]
 8003b5c:	4607      	mov	r7, r0
 8003b5e:	4691      	mov	r9, r2
 8003b60:	ea4f 1a62 	mov.w	sl, r2, asr #5
 8003b64:	f108 0601 	add.w	r6, r8, #1
 8003b68:	42b3      	cmp	r3, r6
 8003b6a:	db0b      	blt.n	8003b84 <__lshift+0x38>
 8003b6c:	4638      	mov	r0, r7
 8003b6e:	f7ff fde7 	bl	8003740 <_Balloc>
 8003b72:	4605      	mov	r5, r0
 8003b74:	b948      	cbnz	r0, 8003b8a <__lshift+0x3e>
 8003b76:	4602      	mov	r2, r0
 8003b78:	4b28      	ldr	r3, [pc, #160]	@ (8003c1c <__lshift+0xd0>)
 8003b7a:	4829      	ldr	r0, [pc, #164]	@ (8003c20 <__lshift+0xd4>)
 8003b7c:	f44f 71ef 	mov.w	r1, #478	@ 0x1de
 8003b80:	f000 fa22 	bl	8003fc8 <__assert_func>
 8003b84:	3101      	adds	r1, #1
 8003b86:	005b      	lsls	r3, r3, #1
 8003b88:	e7ee      	b.n	8003b68 <__lshift+0x1c>
 8003b8a:	2300      	movs	r3, #0
 8003b8c:	f100 0114 	add.w	r1, r0, #20
 8003b90:	f100 0210 	add.w	r2, r0, #16
 8003b94:	4618      	mov	r0, r3
 8003b96:	4553      	cmp	r3, sl
 8003b98:	db33      	blt.n	8003c02 <__lshift+0xb6>
 8003b9a:	6920      	ldr	r0, [r4, #16]
 8003b9c:	ea2a 7aea 	bic.w	sl, sl, sl, asr #31
 8003ba0:	f104 0314 	add.w	r3, r4, #20
 8003ba4:	f019 091f 	ands.w	r9, r9, #31
 8003ba8:	eb01 018a 	add.w	r1, r1, sl, lsl #2
 8003bac:	eb03 0c80 	add.w	ip, r3, r0, lsl #2
 8003bb0:	d02b      	beq.n	8003c0a <__lshift+0xbe>
 8003bb2:	f1c9 0e20 	rsb	lr, r9, #32
 8003bb6:	468a      	mov	sl, r1
 8003bb8:	2200      	movs	r2, #0
 8003bba:	6818      	ldr	r0, [r3, #0]
 8003bbc:	fa00 f009 	lsl.w	r0, r0, r9
 8003bc0:	4310      	orrs	r0, r2
 8003bc2:	f84a 0b04 	str.w	r0, [sl], #4
 8003bc6:	f853 2b04 	ldr.w	r2, [r3], #4
 8003bca:	459c      	cmp	ip, r3
 8003bcc:	fa22 f20e 	lsr.w	r2, r2, lr
 8003bd0:	d8f3      	bhi.n	8003bba <__lshift+0x6e>
 8003bd2:	ebac 0304 	sub.w	r3, ip, r4
 8003bd6:	3b15      	subs	r3, #21
 8003bd8:	f023 0303 	bic.w	r3, r3, #3
 8003bdc:	3304      	adds	r3, #4
 8003bde:	f104 0015 	add.w	r0, r4, #21
 8003be2:	4560      	cmp	r0, ip
 8003be4:	bf88      	it	hi
 8003be6:	2304      	movhi	r3, #4
 8003be8:	50ca      	str	r2, [r1, r3]
 8003bea:	b10a      	cbz	r2, 8003bf0 <__lshift+0xa4>
 8003bec:	f108 0602 	add.w	r6, r8, #2
 8003bf0:	3e01      	subs	r6, #1
 8003bf2:	4638      	mov	r0, r7
 8003bf4:	612e      	str	r6, [r5, #16]
 8003bf6:	4621      	mov	r1, r4
 8003bf8:	f7ff fde2 	bl	80037c0 <_Bfree>
 8003bfc:	4628      	mov	r0, r5
 8003bfe:	e8bd 87f0 	ldmia.w	sp!, {r4, r5, r6, r7, r8, r9, sl, pc}
 8003c02:	f842 0f04 	str.w	r0, [r2, #4]!
 8003c06:	3301      	adds	r3, #1
 8003c08:	e7c5      	b.n	8003b96 <__lshift+0x4a>
 8003c0a:	3904      	subs	r1, #4
 8003c0c:	f853 2b04 	ldr.w	r2, [r3], #4
 8003c10:	f841 2f04 	str.w	r2, [r1, #4]!
 8003c14:	459c      	cmp	ip, r3
 8003c16:	d8f9      	bhi.n	8003c0c <__lshift+0xc0>
 8003c18:	e7ea      	b.n	8003bf0 <__lshift+0xa4>
 8003c1a:	bf00      	nop
 8003c1c:	080046a0 	.word	0x080046a0
 8003c20:	080046b1 	.word	0x080046b1

08003c24 <__mcmp>:
 8003c24:	690a      	ldr	r2, [r1, #16]
 8003c26:	4603      	mov	r3, r0
 8003c28:	6900      	ldr	r0, [r0, #16]
 8003c2a:	1a80      	subs	r0, r0, r2
 8003c2c:	b530      	push	{r4, r5, lr}
 8003c2e:	d10e      	bne.n	8003c4e <__mcmp+0x2a>
 8003c30:	3314      	adds	r3, #20
 8003c32:	3114      	adds	r1, #20
 8003c34:	eb03 0482 	add.w	r4, r3, r2, lsl #2
 8003c38:	eb01 0182 	add.w	r1, r1, r2, lsl #2
 8003c3c:	f854 5d04 	ldr.w	r5, [r4, #-4]!
 8003c40:	f851 2d04 	ldr.w	r2, [r1, #-4]!
 8003c44:	4295      	cmp	r5, r2
 8003c46:	d003      	beq.n	8003c50 <__mcmp+0x2c>
 8003c48:	d205      	bcs.n	8003c56 <__mcmp+0x32>
 8003c4a:	f04f 30ff 	mov.w	r0, #4294967295
 8003c4e:	bd30      	pop	{r4, r5, pc}
 8003c50:	42a3      	cmp	r3, r4
 8003c52:	d3f3      	bcc.n	8003c3c <__mcmp+0x18>
 8003c54:	e7fb      	b.n	8003c4e <__mcmp+0x2a>
 8003c56:	2001      	movs	r0, #1
 8003c58:	e7f9      	b.n	8003c4e <__mcmp+0x2a>
	...

08003c5c <__mdiff>:
 8003c5c:	e92d 4ff7 	stmdb	sp!, {r0, r1, r2, r4, r5, r6, r7, r8, r9, sl, fp, lr}
 8003c60:	4689      	mov	r9, r1
 8003c62:	4606      	mov	r6, r0
 8003c64:	4611      	mov	r1, r2
 8003c66:	4648      	mov	r0, r9
 8003c68:	4614      	mov	r4, r2
 8003c6a:	f7ff ffdb 	bl	8003c24 <__mcmp>
 8003c6e:	1e05      	subs	r5, r0, #0
 8003c70:	d112      	bne.n	8003c98 <__mdiff+0x3c>
 8003c72:	4629      	mov	r1, r5
 8003c74:	4630      	mov	r0, r6
 8003c76:	f7ff fd63 	bl	8003740 <_Balloc>
 8003c7a:	4602      	mov	r2, r0
 8003c7c:	b928      	cbnz	r0, 8003c8a <__mdiff+0x2e>
 8003c7e:	4b3f      	ldr	r3, [pc, #252]	@ (8003d7c <__mdiff+0x120>)
 8003c80:	f240 2137 	movw	r1, #567	@ 0x237
 8003c84:	483e      	ldr	r0, [pc, #248]	@ (8003d80 <__mdiff+0x124>)
 8003c86:	f000 f99f 	bl	8003fc8 <__assert_func>
 8003c8a:	2301      	movs	r3, #1
 8003c8c:	e9c0 3504 	strd	r3, r5, [r0, #16]
 8003c90:	4610      	mov	r0, r2
 8003c92:	b003      	add	sp, #12
 8003c94:	e8bd 8ff0 	ldmia.w	sp!, {r4, r5, r6, r7, r8, r9, sl, fp, pc}
 8003c98:	bfbc      	itt	lt
 8003c9a:	464b      	movlt	r3, r9
 8003c9c:	46a1      	movlt	r9, r4
 8003c9e:	4630      	mov	r0, r6
 8003ca0:	f8d9 1004 	ldr.w	r1, [r9, #4]
 8003ca4:	bfba      	itte	lt
 8003ca6:	461c      	movlt	r4, r3
 8003ca8:	2501      	movlt	r5, #1
 8003caa:	2500      	movge	r5, #0
 8003cac:	f7ff fd48 	bl	8003740 <_Balloc>
 8003cb0:	4602      	mov	r2, r0
 8003cb2:	b918      	cbnz	r0, 8003cbc <__mdiff+0x60>
 8003cb4:	4b31      	ldr	r3, [pc, #196]	@ (8003d7c <__mdiff+0x120>)
 8003cb6:	f240 2145 	movw	r1, #581	@ 0x245
 8003cba:	e7e3      	b.n	8003c84 <__mdiff+0x28>
 8003cbc:	f8d9 7010 	ldr.w	r7, [r9, #16]
 8003cc0:	6926      	ldr	r6, [r4, #16]
 8003cc2:	60c5      	str	r5, [r0, #12]
 8003cc4:	f109 0310 	add.w	r3, r9, #16
 8003cc8:	f109 0514 	add.w	r5, r9, #20
 8003ccc:	f104 0e14 	add.w	lr, r4, #20
 8003cd0:	f100 0b14 	add.w	fp, r0, #20
 8003cd4:	eb05 0887 	add.w	r8, r5, r7, lsl #2
 8003cd8:	eb0e 0686 	add.w	r6, lr, r6, lsl #2
 8003cdc:	9301      	str	r3, [sp, #4]
 8003cde:	46d9      	mov	r9, fp
 8003ce0:	f04f 0c00 	mov.w	ip, #0
 8003ce4:	9b01      	ldr	r3, [sp, #4]
 8003ce6:	f85e 0b04 	ldr.w	r0, [lr], #4
 8003cea:	f853 af04 	ldr.w	sl, [r3, #4]!
 8003cee:	9301      	str	r3, [sp, #4]
 8003cf0:	fa1f f38a 	uxth.w	r3, sl
 8003cf4:	4619      	mov	r1, r3
 8003cf6:	b283      	uxth	r3, r0
 8003cf8:	1acb      	subs	r3, r1, r3
 8003cfa:	0c00      	lsrs	r0, r0, #16
 8003cfc:	4463      	add	r3, ip
 8003cfe:	ebc0 401a 	rsb	r0, r0, sl, lsr #16
 8003d02:	eb00 4023 	add.w	r0, r0, r3, asr #16
 8003d06:	b29b      	uxth	r3, r3
 8003d08:	ea43 4300 	orr.w	r3, r3, r0, lsl #16
 8003d0c:	4576      	cmp	r6, lr
 8003d0e:	f849 3b04 	str.w	r3, [r9], #4
 8003d12:	ea4f 4c20 	mov.w	ip, r0, asr #16
 8003d16:	d8e5      	bhi.n	8003ce4 <__mdiff+0x88>
 8003d18:	1b33      	subs	r3, r6, r4
 8003d1a:	3b15      	subs	r3, #21
 8003d1c:	f023 0303 	bic.w	r3, r3, #3
 8003d20:	3415      	adds	r4, #21
 8003d22:	3304      	adds	r3, #4
 8003d24:	42a6      	cmp	r6, r4
 8003d26:	bf38      	it	cc
 8003d28:	2304      	movcc	r3, #4
 8003d2a:	441d      	add	r5, r3
 8003d2c:	445b      	add	r3, fp
 8003d2e:	461e      	mov	r6, r3
 8003d30:	462c      	mov	r4, r5
 8003d32:	4544      	cmp	r4, r8
 8003d34:	d30e      	bcc.n	8003d54 <__mdiff+0xf8>
 8003d36:	f108 0103 	add.w	r1, r8, #3
 8003d3a:	1b49      	subs	r1, r1, r5
 8003d3c:	f021 0103 	bic.w	r1, r1, #3
 8003d40:	3d03      	subs	r5, #3
 8003d42:	45a8      	cmp	r8, r5
 8003d44:	bf38      	it	cc
 8003d46:	2100      	movcc	r1, #0
 8003d48:	440b      	add	r3, r1
 8003d4a:	f853 1d04 	ldr.w	r1, [r3, #-4]!
 8003d4e:	b191      	cbz	r1, 8003d76 <__mdiff+0x11a>
 8003d50:	6117      	str	r7, [r2, #16]
 8003d52:	e79d      	b.n	8003c90 <__mdiff+0x34>
 8003d54:	f854 1b04 	ldr.w	r1, [r4], #4
 8003d58:	46e6      	mov	lr, ip
 8003d5a:	0c08      	lsrs	r0, r1, #16
 8003d5c:	fa1c fc81 	uxtah	ip, ip, r1
 8003d60:	4471      	add	r1, lr
 8003d62:	eb00 402c 	add.w	r0, r0, ip, asr #16
 8003d66:	b289      	uxth	r1, r1
 8003d68:	ea41 4100 	orr.w	r1, r1, r0, lsl #16
 8003d6c:	f846 1b04 	str.w	r1, [r6], #4
 8003d70:	ea4f 4c20 	mov.w	ip, r0, asr #16
 8003d74:	e7dd      	b.n	8003d32 <__mdiff+0xd6>
 8003d76:	3f01      	subs	r7, #1
 8003d78:	e7e7      	b.n	8003d4a <__mdiff+0xee>
 8003d7a:	bf00      	nop
 8003d7c:	080046a0 	.word	0x080046a0
 8003d80:	080046b1 	.word	0x080046b1

08003d84 <__d2b>:
 8003d84:	e92d 43f7 	stmdb	sp!, {r0, r1, r2, r4, r5, r6, r7, r8, r9, lr}
 8003d88:	460f      	mov	r7, r1
 8003d8a:	2101      	movs	r1, #1
 8003d8c:	ec59 8b10 	vmov	r8, r9, d0
 8003d90:	4616      	mov	r6, r2
 8003d92:	f7ff fcd5 	bl	8003740 <_Balloc>
 8003d96:	4604      	mov	r4, r0
 8003d98:	b930      	cbnz	r0, 8003da8 <__d2b+0x24>
 8003d9a:	4602      	mov	r2, r0
 8003d9c:	4b23      	ldr	r3, [pc, #140]	@ (8003e2c <__d2b+0xa8>)
 8003d9e:	4824      	ldr	r0, [pc, #144]	@ (8003e30 <__d2b+0xac>)
 8003da0:	f240 310f 	movw	r1, #783	@ 0x30f
 8003da4:	f000 f910 	bl	8003fc8 <__assert_func>
 8003da8:	f3c9 550a 	ubfx	r5, r9, #20, #11
 8003dac:	f3c9 0313 	ubfx	r3, r9, #0, #20
 8003db0:	b10d      	cbz	r5, 8003db6 <__d2b+0x32>
 8003db2:	f443 1380 	orr.w	r3, r3, #1048576	@ 0x100000
 8003db6:	9301      	str	r3, [sp, #4]
 8003db8:	f1b8 0300 	subs.w	r3, r8, #0
 8003dbc:	d023      	beq.n	8003e06 <__d2b+0x82>
 8003dbe:	4668      	mov	r0, sp
 8003dc0:	9300      	str	r3, [sp, #0]
 8003dc2:	f7ff fd84 	bl	80038ce <__lo0bits>
 8003dc6:	e9dd 1200 	ldrd	r1, r2, [sp]
 8003dca:	b1d0      	cbz	r0, 8003e02 <__d2b+0x7e>
 8003dcc:	f1c0 0320 	rsb	r3, r0, #32
 8003dd0:	fa02 f303 	lsl.w	r3, r2, r3
 8003dd4:	430b      	orrs	r3, r1
 8003dd6:	40c2      	lsrs	r2, r0
 8003dd8:	6163      	str	r3, [r4, #20]
 8003dda:	9201      	str	r2, [sp, #4]
 8003ddc:	9b01      	ldr	r3, [sp, #4]
 8003dde:	61a3      	str	r3, [r4, #24]
 8003de0:	2b00      	cmp	r3, #0
 8003de2:	bf0c      	ite	eq
 8003de4:	2201      	moveq	r2, #1
 8003de6:	2202      	movne	r2, #2
 8003de8:	6122      	str	r2, [r4, #16]
 8003dea:	b1a5      	cbz	r5, 8003e16 <__d2b+0x92>
 8003dec:	f2a5 4533 	subw	r5, r5, #1075	@ 0x433
 8003df0:	4405      	add	r5, r0
 8003df2:	603d      	str	r5, [r7, #0]
 8003df4:	f1c0 0035 	rsb	r0, r0, #53	@ 0x35
 8003df8:	6030      	str	r0, [r6, #0]
 8003dfa:	4620      	mov	r0, r4
 8003dfc:	b003      	add	sp, #12
 8003dfe:	e8bd 83f0 	ldmia.w	sp!, {r4, r5, r6, r7, r8, r9, pc}
 8003e02:	6161      	str	r1, [r4, #20]
 8003e04:	e7ea      	b.n	8003ddc <__d2b+0x58>
 8003e06:	a801      	add	r0, sp, #4
 8003e08:	f7ff fd61 	bl	80038ce <__lo0bits>
 8003e0c:	9b01      	ldr	r3, [sp, #4]
 8003e0e:	6163      	str	r3, [r4, #20]
 8003e10:	3020      	adds	r0, #32
 8003e12:	2201      	movs	r2, #1
 8003e14:	e7e8      	b.n	8003de8 <__d2b+0x64>
 8003e16:	eb04 0382 	add.w	r3, r4, r2, lsl #2
 8003e1a:	f2a0 4032 	subw	r0, r0, #1074	@ 0x432
 8003e1e:	6038      	str	r0, [r7, #0]
 8003e20:	6918      	ldr	r0, [r3, #16]
 8003e22:	f7ff fd35 	bl	8003890 <__hi0bits>
 8003e26:	ebc0 1042 	rsb	r0, r0, r2, lsl #5
 8003e2a:	e7e5      	b.n	8003df8 <__d2b+0x74>
 8003e2c:	080046a0 	.word	0x080046a0
 8003e30:	080046b1 	.word	0x080046b1

08003e34 <__sflush_r>:
 8003e34:	f9b1 200c 	ldrsh.w	r2, [r1, #12]
 8003e38:	e92d 41f0 	stmdb	sp!, {r4, r5, r6, r7, r8, lr}
 8003e3c:	0716      	lsls	r6, r2, #28
 8003e3e:	4605      	mov	r5, r0
 8003e40:	460c      	mov	r4, r1
 8003e42:	d454      	bmi.n	8003eee <__sflush_r+0xba>
 8003e44:	684b      	ldr	r3, [r1, #4]
 8003e46:	2b00      	cmp	r3, #0
 8003e48:	dc02      	bgt.n	8003e50 <__sflush_r+0x1c>
 8003e4a:	6c0b      	ldr	r3, [r1, #64]	@ 0x40
 8003e4c:	2b00      	cmp	r3, #0
 8003e4e:	dd48      	ble.n	8003ee2 <__sflush_r+0xae>
 8003e50:	6ae6      	ldr	r6, [r4, #44]	@ 0x2c
 8003e52:	2e00      	cmp	r6, #0
 8003e54:	d045      	beq.n	8003ee2 <__sflush_r+0xae>
 8003e56:	2300      	movs	r3, #0
 8003e58:	f412 5280 	ands.w	r2, r2, #4096	@ 0x1000
 8003e5c:	682f      	ldr	r7, [r5, #0]
 8003e5e:	6a21      	ldr	r1, [r4, #32]
 8003e60:	602b      	str	r3, [r5, #0]
 8003e62:	d030      	beq.n	8003ec6 <__sflush_r+0x92>
 8003e64:	6d62      	ldr	r2, [r4, #84]	@ 0x54
 8003e66:	89a3      	ldrh	r3, [r4, #12]
 8003e68:	0759      	lsls	r1, r3, #29
 8003e6a:	d505      	bpl.n	8003e78 <__sflush_r+0x44>
 8003e6c:	6863      	ldr	r3, [r4, #4]
 8003e6e:	1ad2      	subs	r2, r2, r3
 8003e70:	6b63      	ldr	r3, [r4, #52]	@ 0x34
 8003e72:	b10b      	cbz	r3, 8003e78 <__sflush_r+0x44>
 8003e74:	6c23      	ldr	r3, [r4, #64]	@ 0x40
 8003e76:	1ad2      	subs	r2, r2, r3
 8003e78:	2300      	movs	r3, #0
 8003e7a:	6ae6      	ldr	r6, [r4, #44]	@ 0x2c
 8003e7c:	6a21      	ldr	r1, [r4, #32]
 8003e7e:	4628      	mov	r0, r5
 8003e80:	47b0      	blx	r6
 8003e82:	1c43      	adds	r3, r0, #1
 8003e84:	89a3      	ldrh	r3, [r4, #12]
 8003e86:	d106      	bne.n	8003e96 <__sflush_r+0x62>
 8003e88:	6829      	ldr	r1, [r5, #0]
 8003e8a:	291d      	cmp	r1, #29
 8003e8c:	d82b      	bhi.n	8003ee6 <__sflush_r+0xb2>
 8003e8e:	4a2a      	ldr	r2, [pc, #168]	@ (8003f38 <__sflush_r+0x104>)
 8003e90:	40ca      	lsrs	r2, r1
 8003e92:	07d6      	lsls	r6, r2, #31
 8003e94:	d527      	bpl.n	8003ee6 <__sflush_r+0xb2>
 8003e96:	2200      	movs	r2, #0
 8003e98:	6062      	str	r2, [r4, #4]
 8003e9a:	04d9      	lsls	r1, r3, #19
 8003e9c:	6922      	ldr	r2, [r4, #16]
 8003e9e:	6022      	str	r2, [r4, #0]
 8003ea0:	d504      	bpl.n	8003eac <__sflush_r+0x78>
 8003ea2:	1c42      	adds	r2, r0, #1
 8003ea4:	d101      	bne.n	8003eaa <__sflush_r+0x76>
 8003ea6:	682b      	ldr	r3, [r5, #0]
 8003ea8:	b903      	cbnz	r3, 8003eac <__sflush_r+0x78>
 8003eaa:	6560      	str	r0, [r4, #84]	@ 0x54
 8003eac:	6b61      	ldr	r1, [r4, #52]	@ 0x34
 8003eae:	602f      	str	r7, [r5, #0]
 8003eb0:	b1b9      	cbz	r1, 8003ee2 <__sflush_r+0xae>
 8003eb2:	f104 0344 	add.w	r3, r4, #68	@ 0x44
 8003eb6:	4299      	cmp	r1, r3
 8003eb8:	d002      	beq.n	8003ec0 <__sflush_r+0x8c>
 8003eba:	4628      	mov	r0, r5
 8003ebc:	f7ff fb40 	bl	8003540 <_free_r>
 8003ec0:	2300      	movs	r3, #0
 8003ec2:	6363      	str	r3, [r4, #52]	@ 0x34
 8003ec4:	e00d      	b.n	8003ee2 <__sflush_r+0xae>
 8003ec6:	2301      	movs	r3, #1
 8003ec8:	4628      	mov	r0, r5
 8003eca:	47b0      	blx	r6
 8003ecc:	4602      	mov	r2, r0
 8003ece:	1c50      	adds	r0, r2, #1
 8003ed0:	d1c9      	bne.n	8003e66 <__sflush_r+0x32>
 8003ed2:	682b      	ldr	r3, [r5, #0]
 8003ed4:	2b00      	cmp	r3, #0
 8003ed6:	d0c6      	beq.n	8003e66 <__sflush_r+0x32>
 8003ed8:	2b1d      	cmp	r3, #29
 8003eda:	d001      	beq.n	8003ee0 <__sflush_r+0xac>
 8003edc:	2b16      	cmp	r3, #22
 8003ede:	d11e      	bne.n	8003f1e <__sflush_r+0xea>
 8003ee0:	602f      	str	r7, [r5, #0]
 8003ee2:	2000      	movs	r0, #0
 8003ee4:	e022      	b.n	8003f2c <__sflush_r+0xf8>
 8003ee6:	f043 0340 	orr.w	r3, r3, #64	@ 0x40
 8003eea:	b21b      	sxth	r3, r3
 8003eec:	e01b      	b.n	8003f26 <__sflush_r+0xf2>
 8003eee:	690f      	ldr	r7, [r1, #16]
 8003ef0:	2f00      	cmp	r7, #0
 8003ef2:	d0f6      	beq.n	8003ee2 <__sflush_r+0xae>
 8003ef4:	0793      	lsls	r3, r2, #30
 8003ef6:	680e      	ldr	r6, [r1, #0]
 8003ef8:	bf08      	it	eq
 8003efa:	694b      	ldreq	r3, [r1, #20]
 8003efc:	600f      	str	r7, [r1, #0]
 8003efe:	bf18      	it	ne
 8003f00:	2300      	movne	r3, #0
 8003f02:	eba6 0807 	sub.w	r8, r6, r7
 8003f06:	608b      	str	r3, [r1, #8]
 8003f08:	f1b8 0f00 	cmp.w	r8, #0
 8003f0c:	dde9      	ble.n	8003ee2 <__sflush_r+0xae>
 8003f0e:	6a21      	ldr	r1, [r4, #32]
 8003f10:	6aa6      	ldr	r6, [r4, #40]	@ 0x28
 8003f12:	4643      	mov	r3, r8
 8003f14:	463a      	mov	r2, r7
 8003f16:	4628      	mov	r0, r5
 8003f18:	47b0      	blx	r6
 8003f1a:	2800      	cmp	r0, #0
 8003f1c:	dc08      	bgt.n	8003f30 <__sflush_r+0xfc>
 8003f1e:	f9b4 300c 	ldrsh.w	r3, [r4, #12]
 8003f22:	f043 0340 	orr.w	r3, r3, #64	@ 0x40
 8003f26:	81a3      	strh	r3, [r4, #12]
 8003f28:	f04f 30ff 	mov.w	r0, #4294967295
 8003f2c:	e8bd 81f0 	ldmia.w	sp!, {r4, r5, r6, r7, r8, pc}
 8003f30:	4407      	add	r7, r0
 8003f32:	eba8 0800 	sub.w	r8, r8, r0
 8003f36:	e7e7      	b.n	8003f08 <__sflush_r+0xd4>
 8003f38:	20400001 	.word	0x20400001

08003f3c <_fflush_r>:
 8003f3c:	b538      	push	{r3, r4, r5, lr}
 8003f3e:	690b      	ldr	r3, [r1, #16]
 8003f40:	4605      	mov	r5, r0
 8003f42:	460c      	mov	r4, r1
 8003f44:	b913      	cbnz	r3, 8003f4c <_fflush_r+0x10>
 8003f46:	2500      	movs	r5, #0
 8003f48:	4628      	mov	r0, r5
 8003f4a:	bd38      	pop	{r3, r4, r5, pc}
 8003f4c:	b118      	cbz	r0, 8003f56 <_fflush_r+0x1a>
 8003f4e:	6a03      	ldr	r3, [r0, #32]
 8003f50:	b90b      	cbnz	r3, 8003f56 <_fflush_r+0x1a>
 8003f52:	f7fe fba3 	bl	800269c <__sinit>
 8003f56:	f9b4 300c 	ldrsh.w	r3, [r4, #12]
 8003f5a:	2b00      	cmp	r3, #0
 8003f5c:	d0f3      	beq.n	8003f46 <_fflush_r+0xa>
 8003f5e:	6e62      	ldr	r2, [r4, #100]	@ 0x64
 8003f60:	07d0      	lsls	r0, r2, #31
 8003f62:	d404      	bmi.n	8003f6e <_fflush_r+0x32>
 8003f64:	0599      	lsls	r1, r3, #22
 8003f66:	d402      	bmi.n	8003f6e <_fflush_r+0x32>
 8003f68:	6da0      	ldr	r0, [r4, #88]	@ 0x58
 8003f6a:	f7fe fc8e 	bl	800288a <__retarget_lock_acquire_recursive>
 8003f6e:	4628      	mov	r0, r5
 8003f70:	4621      	mov	r1, r4
 8003f72:	f7ff ff5f 	bl	8003e34 <__sflush_r>
 8003f76:	6e63      	ldr	r3, [r4, #100]	@ 0x64
 8003f78:	07da      	lsls	r2, r3, #31
 8003f7a:	4605      	mov	r5, r0
 8003f7c:	d4e4      	bmi.n	8003f48 <_fflush_r+0xc>
 8003f7e:	89a3      	ldrh	r3, [r4, #12]
 8003f80:	059b      	lsls	r3, r3, #22
 8003f82:	d4e1      	bmi.n	8003f48 <_fflush_r+0xc>
 8003f84:	6da0      	ldr	r0, [r4, #88]	@ 0x58
 8003f86:	f7fe fc81 	bl	800288c <__retarget_lock_release_recursive>
 8003f8a:	e7dd      	b.n	8003f48 <_fflush_r+0xc>

08003f8c <_sbrk_r>:
 8003f8c:	b538      	push	{r3, r4, r5, lr}
 8003f8e:	4d06      	ldr	r5, [pc, #24]	@ (8003fa8 <_sbrk_r+0x1c>)
 8003f90:	2300      	movs	r3, #0
 8003f92:	4604      	mov	r4, r0
 8003f94:	4608      	mov	r0, r1
 8003f96:	602b      	str	r3, [r5, #0]
 8003f98:	f7fd fd38 	bl	8001a0c <_sbrk>
 8003f9c:	1c43      	adds	r3, r0, #1
 8003f9e:	d102      	bne.n	8003fa6 <_sbrk_r+0x1a>
 8003fa0:	682b      	ldr	r3, [r5, #0]
 8003fa2:	b103      	cbz	r3, 8003fa6 <_sbrk_r+0x1a>
 8003fa4:	6023      	str	r3, [r4, #0]
 8003fa6:	bd38      	pop	{r3, r4, r5, pc}
 8003fa8:	20000348 	.word	0x20000348

08003fac <memcpy>:
 8003fac:	440a      	add	r2, r1
 8003fae:	4291      	cmp	r1, r2
 8003fb0:	f100 33ff 	add.w	r3, r0, #4294967295
 8003fb4:	d100      	bne.n	8003fb8 <memcpy+0xc>
 8003fb6:	4770      	bx	lr
 8003fb8:	b510      	push	{r4, lr}
 8003fba:	f811 4b01 	ldrb.w	r4, [r1], #1
 8003fbe:	f803 4f01 	strb.w	r4, [r3, #1]!
 8003fc2:	4291      	cmp	r1, r2
 8003fc4:	d1f9      	bne.n	8003fba <memcpy+0xe>
 8003fc6:	bd10      	pop	{r4, pc}

08003fc8 <__assert_func>:
 8003fc8:	b51f      	push	{r0, r1, r2, r3, r4, lr}
 8003fca:	4614      	mov	r4, r2
 8003fcc:	461a      	mov	r2, r3
 8003fce:	4b09      	ldr	r3, [pc, #36]	@ (8003ff4 <__assert_func+0x2c>)
 8003fd0:	681b      	ldr	r3, [r3, #0]
 8003fd2:	4605      	mov	r5, r0
 8003fd4:	68d8      	ldr	r0, [r3, #12]
 8003fd6:	b14c      	cbz	r4, 8003fec <__assert_func+0x24>
 8003fd8:	4b07      	ldr	r3, [pc, #28]	@ (8003ff8 <__assert_func+0x30>)
 8003fda:	9100      	str	r1, [sp, #0]
 8003fdc:	e9cd 3401 	strd	r3, r4, [sp, #4]
 8003fe0:	4906      	ldr	r1, [pc, #24]	@ (8003ffc <__assert_func+0x34>)
 8003fe2:	462b      	mov	r3, r5
 8003fe4:	f000 f842 	bl	800406c <fiprintf>
 8003fe8:	f000 f852 	bl	8004090 <abort>
 8003fec:	4b04      	ldr	r3, [pc, #16]	@ (8004000 <__assert_func+0x38>)
 8003fee:	461c      	mov	r4, r3
 8003ff0:	e7f3      	b.n	8003fda <__assert_func+0x12>
 8003ff2:	bf00      	nop
 8003ff4:	2000000c 	.word	0x2000000c
 8003ff8:	08004714 	.word	0x08004714
 8003ffc:	08004721 	.word	0x08004721
 8004000:	0800474f 	.word	0x0800474f

08004004 <_calloc_r>:
 8004004:	b570      	push	{r4, r5, r6, lr}
 8004006:	fba1 5402 	umull	r5, r4, r1, r2
 800400a:	b934      	cbnz	r4, 800401a <_calloc_r+0x16>
 800400c:	4629      	mov	r1, r5
 800400e:	f7ff fb0b 	bl	8003628 <_malloc_r>
 8004012:	4606      	mov	r6, r0
 8004014:	b928      	cbnz	r0, 8004022 <_calloc_r+0x1e>
 8004016:	4630      	mov	r0, r6
 8004018:	bd70      	pop	{r4, r5, r6, pc}
 800401a:	220c      	movs	r2, #12
 800401c:	6002      	str	r2, [r0, #0]
 800401e:	2600      	movs	r6, #0
 8004020:	e7f9      	b.n	8004016 <_calloc_r+0x12>
 8004022:	462a      	mov	r2, r5
 8004024:	4621      	mov	r1, r4
 8004026:	f7fe fbb2 	bl	800278e <memset>
 800402a:	e7f4      	b.n	8004016 <_calloc_r+0x12>

0800402c <__ascii_mbtowc>:
 800402c:	b082      	sub	sp, #8
 800402e:	b901      	cbnz	r1, 8004032 <__ascii_mbtowc+0x6>
 8004030:	a901      	add	r1, sp, #4
 8004032:	b142      	cbz	r2, 8004046 <__ascii_mbtowc+0x1a>
 8004034:	b14b      	cbz	r3, 800404a <__ascii_mbtowc+0x1e>
 8004036:	7813      	ldrb	r3, [r2, #0]
 8004038:	600b      	str	r3, [r1, #0]
 800403a:	7812      	ldrb	r2, [r2, #0]
 800403c:	1e10      	subs	r0, r2, #0
 800403e:	bf18      	it	ne
 8004040:	2001      	movne	r0, #1
 8004042:	b002      	add	sp, #8
 8004044:	4770      	bx	lr
 8004046:	4610      	mov	r0, r2
 8004048:	e7fb      	b.n	8004042 <__ascii_mbtowc+0x16>
 800404a:	f06f 0001 	mvn.w	r0, #1
 800404e:	e7f8      	b.n	8004042 <__ascii_mbtowc+0x16>

08004050 <__ascii_wctomb>:
 8004050:	4603      	mov	r3, r0
 8004052:	4608      	mov	r0, r1
 8004054:	b141      	cbz	r1, 8004068 <__ascii_wctomb+0x18>
 8004056:	2aff      	cmp	r2, #255	@ 0xff
 8004058:	d904      	bls.n	8004064 <__ascii_wctomb+0x14>
 800405a:	228a      	movs	r2, #138	@ 0x8a
 800405c:	601a      	str	r2, [r3, #0]
 800405e:	f04f 30ff 	mov.w	r0, #4294967295
 8004062:	4770      	bx	lr
 8004064:	700a      	strb	r2, [r1, #0]
 8004066:	2001      	movs	r0, #1
 8004068:	4770      	bx	lr
	...

0800406c <fiprintf>:
 800406c:	b40e      	push	{r1, r2, r3}
 800406e:	b503      	push	{r0, r1, lr}
 8004070:	4601      	mov	r1, r0
 8004072:	ab03      	add	r3, sp, #12
 8004074:	4805      	ldr	r0, [pc, #20]	@ (800408c <fiprintf+0x20>)
 8004076:	f853 2b04 	ldr.w	r2, [r3], #4
 800407a:	6800      	ldr	r0, [r0, #0]
 800407c:	9301      	str	r3, [sp, #4]
 800407e:	f000 f837 	bl	80040f0 <_vfiprintf_r>
 8004082:	b002      	add	sp, #8
 8004084:	f85d eb04 	ldr.w	lr, [sp], #4
 8004088:	b003      	add	sp, #12
 800408a:	4770      	bx	lr
 800408c:	2000000c 	.word	0x2000000c

08004090 <abort>:
 8004090:	b508      	push	{r3, lr}
 8004092:	2006      	movs	r0, #6
 8004094:	f000 fa00 	bl	8004498 <raise>
 8004098:	2001      	movs	r0, #1
 800409a:	f7fd fc3f 	bl	800191c <_exit>

0800409e <__sfputc_r>:
 800409e:	6893      	ldr	r3, [r2, #8]
 80040a0:	3b01      	subs	r3, #1
 80040a2:	2b00      	cmp	r3, #0
 80040a4:	b410      	push	{r4}
 80040a6:	6093      	str	r3, [r2, #8]
 80040a8:	da08      	bge.n	80040bc <__sfputc_r+0x1e>
 80040aa:	6994      	ldr	r4, [r2, #24]
 80040ac:	42a3      	cmp	r3, r4
 80040ae:	db01      	blt.n	80040b4 <__sfputc_r+0x16>
 80040b0:	290a      	cmp	r1, #10
 80040b2:	d103      	bne.n	80040bc <__sfputc_r+0x1e>
 80040b4:	f85d 4b04 	ldr.w	r4, [sp], #4
 80040b8:	f000 b932 	b.w	8004320 <__swbuf_r>
 80040bc:	6813      	ldr	r3, [r2, #0]
 80040be:	1c58      	adds	r0, r3, #1
 80040c0:	6010      	str	r0, [r2, #0]
 80040c2:	7019      	strb	r1, [r3, #0]
 80040c4:	4608      	mov	r0, r1
 80040c6:	f85d 4b04 	ldr.w	r4, [sp], #4
 80040ca:	4770      	bx	lr

080040cc <__sfputs_r>:
 80040cc:	b5f8      	push	{r3, r4, r5, r6, r7, lr}
 80040ce:	4606      	mov	r6, r0
 80040d0:	460f      	mov	r7, r1
 80040d2:	4614      	mov	r4, r2
 80040d4:	18d5      	adds	r5, r2, r3
 80040d6:	42ac      	cmp	r4, r5
 80040d8:	d101      	bne.n	80040de <__sfputs_r+0x12>
 80040da:	2000      	movs	r0, #0
 80040dc:	e007      	b.n	80040ee <__sfputs_r+0x22>
 80040de:	f814 1b01 	ldrb.w	r1, [r4], #1
 80040e2:	463a      	mov	r2, r7
 80040e4:	4630      	mov	r0, r6
 80040e6:	f7ff ffda 	bl	800409e <__sfputc_r>
 80040ea:	1c43      	adds	r3, r0, #1
 80040ec:	d1f3      	bne.n	80040d6 <__sfputs_r+0xa>
 80040ee:	bdf8      	pop	{r3, r4, r5, r6, r7, pc}

080040f0 <_vfiprintf_r>:
 80040f0:	e92d 4ff0 	stmdb	sp!, {r4, r5, r6, r7, r8, r9, sl, fp, lr}
 80040f4:	460d      	mov	r5, r1
 80040f6:	b09d      	sub	sp, #116	@ 0x74
 80040f8:	4614      	mov	r4, r2
 80040fa:	4698      	mov	r8, r3
 80040fc:	4606      	mov	r6, r0
 80040fe:	b118      	cbz	r0, 8004108 <_vfiprintf_r+0x18>
 8004100:	6a03      	ldr	r3, [r0, #32]
 8004102:	b90b      	cbnz	r3, 8004108 <_vfiprintf_r+0x18>
 8004104:	f7fe faca 	bl	800269c <__sinit>
 8004108:	6e6b      	ldr	r3, [r5, #100]	@ 0x64
 800410a:	07d9      	lsls	r1, r3, #31
 800410c:	d405      	bmi.n	800411a <_vfiprintf_r+0x2a>
 800410e:	89ab      	ldrh	r3, [r5, #12]
 8004110:	059a      	lsls	r2, r3, #22
 8004112:	d402      	bmi.n	800411a <_vfiprintf_r+0x2a>
 8004114:	6da8      	ldr	r0, [r5, #88]	@ 0x58
 8004116:	f7fe fbb8 	bl	800288a <__retarget_lock_acquire_recursive>
 800411a:	89ab      	ldrh	r3, [r5, #12]
 800411c:	071b      	lsls	r3, r3, #28
 800411e:	d501      	bpl.n	8004124 <_vfiprintf_r+0x34>
 8004120:	692b      	ldr	r3, [r5, #16]
 8004122:	b99b      	cbnz	r3, 800414c <_vfiprintf_r+0x5c>
 8004124:	4629      	mov	r1, r5
 8004126:	4630      	mov	r0, r6
 8004128:	f000 f938 	bl	800439c <__swsetup_r>
 800412c:	b170      	cbz	r0, 800414c <_vfiprintf_r+0x5c>
 800412e:	6e6b      	ldr	r3, [r5, #100]	@ 0x64
 8004130:	07dc      	lsls	r4, r3, #31
 8004132:	d504      	bpl.n	800413e <_vfiprintf_r+0x4e>
 8004134:	f04f 30ff 	mov.w	r0, #4294967295
 8004138:	b01d      	add	sp, #116	@ 0x74
 800413a:	e8bd 8ff0 	ldmia.w	sp!, {r4, r5, r6, r7, r8, r9, sl, fp, pc}
 800413e:	89ab      	ldrh	r3, [r5, #12]
 8004140:	0598      	lsls	r0, r3, #22
 8004142:	d4f7      	bmi.n	8004134 <_vfiprintf_r+0x44>
 8004144:	6da8      	ldr	r0, [r5, #88]	@ 0x58
 8004146:	f7fe fba1 	bl	800288c <__retarget_lock_release_recursive>
 800414a:	e7f3      	b.n	8004134 <_vfiprintf_r+0x44>
 800414c:	2300      	movs	r3, #0
 800414e:	9309      	str	r3, [sp, #36]	@ 0x24
 8004150:	2320      	movs	r3, #32
 8004152:	f88d 3029 	strb.w	r3, [sp, #41]	@ 0x29
 8004156:	f8cd 800c 	str.w	r8, [sp, #12]
 800415a:	2330      	movs	r3, #48	@ 0x30
 800415c:	f8df 81ac 	ldr.w	r8, [pc, #428]	@ 800430c <_vfiprintf_r+0x21c>
 8004160:	f88d 302a 	strb.w	r3, [sp, #42]	@ 0x2a
 8004164:	f04f 0901 	mov.w	r9, #1
 8004168:	4623      	mov	r3, r4
 800416a:	469a      	mov	sl, r3
 800416c:	f813 2b01 	ldrb.w	r2, [r3], #1
 8004170:	b10a      	cbz	r2, 8004176 <_vfiprintf_r+0x86>
 8004172:	2a25      	cmp	r2, #37	@ 0x25
 8004174:	d1f9      	bne.n	800416a <_vfiprintf_r+0x7a>
 8004176:	ebba 0b04 	subs.w	fp, sl, r4
 800417a:	d00b      	beq.n	8004194 <_vfiprintf_r+0xa4>
 800417c:	465b      	mov	r3, fp
 800417e:	4622      	mov	r2, r4
 8004180:	4629      	mov	r1, r5
 8004182:	4630      	mov	r0, r6
 8004184:	f7ff ffa2 	bl	80040cc <__sfputs_r>
 8004188:	3001      	adds	r0, #1
 800418a:	f000 80a7 	beq.w	80042dc <_vfiprintf_r+0x1ec>
 800418e:	9a09      	ldr	r2, [sp, #36]	@ 0x24
 8004190:	445a      	add	r2, fp
 8004192:	9209      	str	r2, [sp, #36]	@ 0x24
 8004194:	f89a 3000 	ldrb.w	r3, [sl]
 8004198:	2b00      	cmp	r3, #0
 800419a:	f000 809f 	beq.w	80042dc <_vfiprintf_r+0x1ec>
 800419e:	2300      	movs	r3, #0
 80041a0:	f04f 32ff 	mov.w	r2, #4294967295
 80041a4:	e9cd 2305 	strd	r2, r3, [sp, #20]
 80041a8:	f10a 0a01 	add.w	sl, sl, #1
 80041ac:	9304      	str	r3, [sp, #16]
 80041ae:	9307      	str	r3, [sp, #28]
 80041b0:	f88d 3053 	strb.w	r3, [sp, #83]	@ 0x53
 80041b4:	931a      	str	r3, [sp, #104]	@ 0x68
 80041b6:	4654      	mov	r4, sl
 80041b8:	2205      	movs	r2, #5
 80041ba:	f814 1b01 	ldrb.w	r1, [r4], #1
 80041be:	4853      	ldr	r0, [pc, #332]	@ (800430c <_vfiprintf_r+0x21c>)
 80041c0:	f7fc f806 	bl	80001d0 <memchr>
 80041c4:	9a04      	ldr	r2, [sp, #16]
 80041c6:	b9d8      	cbnz	r0, 8004200 <_vfiprintf_r+0x110>
 80041c8:	06d1      	lsls	r1, r2, #27
 80041ca:	bf44      	itt	mi
 80041cc:	2320      	movmi	r3, #32
 80041ce:	f88d 3053 	strbmi.w	r3, [sp, #83]	@ 0x53
 80041d2:	0713      	lsls	r3, r2, #28
 80041d4:	bf44      	itt	mi
 80041d6:	232b      	movmi	r3, #43	@ 0x2b
 80041d8:	f88d 3053 	strbmi.w	r3, [sp, #83]	@ 0x53
 80041dc:	f89a 3000 	ldrb.w	r3, [sl]
 80041e0:	2b2a      	cmp	r3, #42	@ 0x2a
 80041e2:	d015      	beq.n	8004210 <_vfiprintf_r+0x120>
 80041e4:	9a07      	ldr	r2, [sp, #28]
 80041e6:	4654      	mov	r4, sl
 80041e8:	2000      	movs	r0, #0
 80041ea:	f04f 0c0a 	mov.w	ip, #10
 80041ee:	4621      	mov	r1, r4
 80041f0:	f811 3b01 	ldrb.w	r3, [r1], #1
 80041f4:	3b30      	subs	r3, #48	@ 0x30
 80041f6:	2b09      	cmp	r3, #9
 80041f8:	d94b      	bls.n	8004292 <_vfiprintf_r+0x1a2>
 80041fa:	b1b0      	cbz	r0, 800422a <_vfiprintf_r+0x13a>
 80041fc:	9207      	str	r2, [sp, #28]
 80041fe:	e014      	b.n	800422a <_vfiprintf_r+0x13a>
 8004200:	eba0 0308 	sub.w	r3, r0, r8
 8004204:	fa09 f303 	lsl.w	r3, r9, r3
 8004208:	4313      	orrs	r3, r2
 800420a:	9304      	str	r3, [sp, #16]
 800420c:	46a2      	mov	sl, r4
 800420e:	e7d2      	b.n	80041b6 <_vfiprintf_r+0xc6>
 8004210:	9b03      	ldr	r3, [sp, #12]
 8004212:	1d19      	adds	r1, r3, #4
 8004214:	681b      	ldr	r3, [r3, #0]
 8004216:	9103      	str	r1, [sp, #12]
 8004218:	2b00      	cmp	r3, #0
 800421a:	bfbb      	ittet	lt
 800421c:	425b      	neglt	r3, r3
 800421e:	f042 0202 	orrlt.w	r2, r2, #2
 8004222:	9307      	strge	r3, [sp, #28]
 8004224:	9307      	strlt	r3, [sp, #28]
 8004226:	bfb8      	it	lt
 8004228:	9204      	strlt	r2, [sp, #16]
 800422a:	7823      	ldrb	r3, [r4, #0]
 800422c:	2b2e      	cmp	r3, #46	@ 0x2e
 800422e:	d10a      	bne.n	8004246 <_vfiprintf_r+0x156>
 8004230:	7863      	ldrb	r3, [r4, #1]
 8004232:	2b2a      	cmp	r3, #42	@ 0x2a
 8004234:	d132      	bne.n	800429c <_vfiprintf_r+0x1ac>
 8004236:	9b03      	ldr	r3, [sp, #12]
 8004238:	1d1a      	adds	r2, r3, #4
 800423a:	681b      	ldr	r3, [r3, #0]
 800423c:	9203      	str	r2, [sp, #12]
 800423e:	ea43 73e3 	orr.w	r3, r3, r3, asr #31
 8004242:	3402      	adds	r4, #2
 8004244:	9305      	str	r3, [sp, #20]
 8004246:	f8df a0d4 	ldr.w	sl, [pc, #212]	@ 800431c <_vfiprintf_r+0x22c>
 800424a:	7821      	ldrb	r1, [r4, #0]
 800424c:	2203      	movs	r2, #3
 800424e:	4650      	mov	r0, sl
 8004250:	f7fb ffbe 	bl	80001d0 <memchr>
 8004254:	b138      	cbz	r0, 8004266 <_vfiprintf_r+0x176>
 8004256:	9b04      	ldr	r3, [sp, #16]
 8004258:	eba0 000a 	sub.w	r0, r0, sl
 800425c:	2240      	movs	r2, #64	@ 0x40
 800425e:	4082      	lsls	r2, r0
 8004260:	4313      	orrs	r3, r2
 8004262:	3401      	adds	r4, #1
 8004264:	9304      	str	r3, [sp, #16]
 8004266:	f814 1b01 	ldrb.w	r1, [r4], #1
 800426a:	4829      	ldr	r0, [pc, #164]	@ (8004310 <_vfiprintf_r+0x220>)
 800426c:	f88d 1028 	strb.w	r1, [sp, #40]	@ 0x28
 8004270:	2206      	movs	r2, #6
 8004272:	f7fb ffad 	bl	80001d0 <memchr>
 8004276:	2800      	cmp	r0, #0
 8004278:	d03f      	beq.n	80042fa <_vfiprintf_r+0x20a>
 800427a:	4b26      	ldr	r3, [pc, #152]	@ (8004314 <_vfiprintf_r+0x224>)
 800427c:	bb1b      	cbnz	r3, 80042c6 <_vfiprintf_r+0x1d6>
 800427e:	9b03      	ldr	r3, [sp, #12]
 8004280:	3307      	adds	r3, #7
 8004282:	f023 0307 	bic.w	r3, r3, #7
 8004286:	3308      	adds	r3, #8
 8004288:	9303      	str	r3, [sp, #12]
 800428a:	9b09      	ldr	r3, [sp, #36]	@ 0x24
 800428c:	443b      	add	r3, r7
 800428e:	9309      	str	r3, [sp, #36]	@ 0x24
 8004290:	e76a      	b.n	8004168 <_vfiprintf_r+0x78>
 8004292:	fb0c 3202 	mla	r2, ip, r2, r3
 8004296:	460c      	mov	r4, r1
 8004298:	2001      	movs	r0, #1
 800429a:	e7a8      	b.n	80041ee <_vfiprintf_r+0xfe>
 800429c:	2300      	movs	r3, #0
 800429e:	3401      	adds	r4, #1
 80042a0:	9305      	str	r3, [sp, #20]
 80042a2:	4619      	mov	r1, r3
 80042a4:	f04f 0c0a 	mov.w	ip, #10
 80042a8:	4620      	mov	r0, r4
 80042aa:	f810 2b01 	ldrb.w	r2, [r0], #1
 80042ae:	3a30      	subs	r2, #48	@ 0x30
 80042b0:	2a09      	cmp	r2, #9
 80042b2:	d903      	bls.n	80042bc <_vfiprintf_r+0x1cc>
 80042b4:	2b00      	cmp	r3, #0
 80042b6:	d0c6      	beq.n	8004246 <_vfiprintf_r+0x156>
 80042b8:	9105      	str	r1, [sp, #20]
 80042ba:	e7c4      	b.n	8004246 <_vfiprintf_r+0x156>
 80042bc:	fb0c 2101 	mla	r1, ip, r1, r2
 80042c0:	4604      	mov	r4, r0
 80042c2:	2301      	movs	r3, #1
 80042c4:	e7f0      	b.n	80042a8 <_vfiprintf_r+0x1b8>
 80042c6:	ab03      	add	r3, sp, #12
 80042c8:	9300      	str	r3, [sp, #0]
 80042ca:	462a      	mov	r2, r5
 80042cc:	4b12      	ldr	r3, [pc, #72]	@ (8004318 <_vfiprintf_r+0x228>)
 80042ce:	a904      	add	r1, sp, #16
 80042d0:	4630      	mov	r0, r6
 80042d2:	f7fd fda1 	bl	8001e18 <_printf_float>
 80042d6:	4607      	mov	r7, r0
 80042d8:	1c78      	adds	r0, r7, #1
 80042da:	d1d6      	bne.n	800428a <_vfiprintf_r+0x19a>
 80042dc:	6e6b      	ldr	r3, [r5, #100]	@ 0x64
 80042de:	07d9      	lsls	r1, r3, #31
 80042e0:	d405      	bmi.n	80042ee <_vfiprintf_r+0x1fe>
 80042e2:	89ab      	ldrh	r3, [r5, #12]
 80042e4:	059a      	lsls	r2, r3, #22
 80042e6:	d402      	bmi.n	80042ee <_vfiprintf_r+0x1fe>
 80042e8:	6da8      	ldr	r0, [r5, #88]	@ 0x58
 80042ea:	f7fe facf 	bl	800288c <__retarget_lock_release_recursive>
 80042ee:	89ab      	ldrh	r3, [r5, #12]
 80042f0:	065b      	lsls	r3, r3, #25
 80042f2:	f53f af1f 	bmi.w	8004134 <_vfiprintf_r+0x44>
 80042f6:	9809      	ldr	r0, [sp, #36]	@ 0x24
 80042f8:	e71e      	b.n	8004138 <_vfiprintf_r+0x48>
 80042fa:	ab03      	add	r3, sp, #12
 80042fc:	9300      	str	r3, [sp, #0]
 80042fe:	462a      	mov	r2, r5
 8004300:	4b05      	ldr	r3, [pc, #20]	@ (8004318 <_vfiprintf_r+0x228>)
 8004302:	a904      	add	r1, sp, #16
 8004304:	4630      	mov	r0, r6
 8004306:	f7fe f81f 	bl	8002348 <_printf_i>
 800430a:	e7e4      	b.n	80042d6 <_vfiprintf_r+0x1e6>
 800430c:	08004750 	.word	0x08004750
 8004310:	0800475a 	.word	0x0800475a
 8004314:	08001e19 	.word	0x08001e19
 8004318:	080040cd 	.word	0x080040cd
 800431c:	08004756 	.word	0x08004756

08004320 <__swbuf_r>:
 8004320:	b5f8      	push	{r3, r4, r5, r6, r7, lr}
 8004322:	460e      	mov	r6, r1
 8004324:	4614      	mov	r4, r2
 8004326:	4605      	mov	r5, r0
 8004328:	b118      	cbz	r0, 8004332 <__swbuf_r+0x12>
 800432a:	6a03      	ldr	r3, [r0, #32]
 800432c:	b90b      	cbnz	r3, 8004332 <__swbuf_r+0x12>
 800432e:	f7fe f9b5 	bl	800269c <__sinit>
 8004332:	69a3      	ldr	r3, [r4, #24]
 8004334:	60a3      	str	r3, [r4, #8]
 8004336:	89a3      	ldrh	r3, [r4, #12]
 8004338:	071a      	lsls	r2, r3, #28
 800433a:	d501      	bpl.n	8004340 <__swbuf_r+0x20>
 800433c:	6923      	ldr	r3, [r4, #16]
 800433e:	b943      	cbnz	r3, 8004352 <__swbuf_r+0x32>
 8004340:	4621      	mov	r1, r4
 8004342:	4628      	mov	r0, r5
 8004344:	f000 f82a 	bl	800439c <__swsetup_r>
 8004348:	b118      	cbz	r0, 8004352 <__swbuf_r+0x32>
 800434a:	f04f 37ff 	mov.w	r7, #4294967295
 800434e:	4638      	mov	r0, r7
 8004350:	bdf8      	pop	{r3, r4, r5, r6, r7, pc}
 8004352:	6823      	ldr	r3, [r4, #0]
 8004354:	6922      	ldr	r2, [r4, #16]
 8004356:	1a98      	subs	r0, r3, r2
 8004358:	6963      	ldr	r3, [r4, #20]
 800435a:	b2f6      	uxtb	r6, r6
 800435c:	4283      	cmp	r3, r0
 800435e:	4637      	mov	r7, r6
 8004360:	dc05      	bgt.n	800436e <__swbuf_r+0x4e>
 8004362:	4621      	mov	r1, r4
 8004364:	4628      	mov	r0, r5
 8004366:	f7ff fde9 	bl	8003f3c <_fflush_r>
 800436a:	2800      	cmp	r0, #0
 800436c:	d1ed      	bne.n	800434a <__swbuf_r+0x2a>
 800436e:	68a3      	ldr	r3, [r4, #8]
 8004370:	3b01      	subs	r3, #1
 8004372:	60a3      	str	r3, [r4, #8]
 8004374:	6823      	ldr	r3, [r4, #0]
 8004376:	1c5a      	adds	r2, r3, #1
 8004378:	6022      	str	r2, [r4, #0]
 800437a:	701e      	strb	r6, [r3, #0]
 800437c:	6962      	ldr	r2, [r4, #20]
 800437e:	1c43      	adds	r3, r0, #1
 8004380:	429a      	cmp	r2, r3
 8004382:	d004      	beq.n	800438e <__swbuf_r+0x6e>
 8004384:	89a3      	ldrh	r3, [r4, #12]
 8004386:	07db      	lsls	r3, r3, #31
 8004388:	d5e1      	bpl.n	800434e <__swbuf_r+0x2e>
 800438a:	2e0a      	cmp	r6, #10
 800438c:	d1df      	bne.n	800434e <__swbuf_r+0x2e>
 800438e:	4621      	mov	r1, r4
 8004390:	4628      	mov	r0, r5
 8004392:	f7ff fdd3 	bl	8003f3c <_fflush_r>
 8004396:	2800      	cmp	r0, #0
 8004398:	d0d9      	beq.n	800434e <__swbuf_r+0x2e>
 800439a:	e7d6      	b.n	800434a <__swbuf_r+0x2a>

0800439c <__swsetup_r>:
 800439c:	b538      	push	{r3, r4, r5, lr}
 800439e:	4b29      	ldr	r3, [pc, #164]	@ (8004444 <__swsetup_r+0xa8>)
 80043a0:	4605      	mov	r5, r0
 80043a2:	6818      	ldr	r0, [r3, #0]
 80043a4:	460c      	mov	r4, r1
 80043a6:	b118      	cbz	r0, 80043b0 <__swsetup_r+0x14>
 80043a8:	6a03      	ldr	r3, [r0, #32]
 80043aa:	b90b      	cbnz	r3, 80043b0 <__swsetup_r+0x14>
 80043ac:	f7fe f976 	bl	800269c <__sinit>
 80043b0:	f9b4 300c 	ldrsh.w	r3, [r4, #12]
 80043b4:	0719      	lsls	r1, r3, #28
 80043b6:	d422      	bmi.n	80043fe <__swsetup_r+0x62>
 80043b8:	06da      	lsls	r2, r3, #27
 80043ba:	d407      	bmi.n	80043cc <__swsetup_r+0x30>
 80043bc:	2209      	movs	r2, #9
 80043be:	602a      	str	r2, [r5, #0]
 80043c0:	f043 0340 	orr.w	r3, r3, #64	@ 0x40
 80043c4:	81a3      	strh	r3, [r4, #12]
 80043c6:	f04f 30ff 	mov.w	r0, #4294967295
 80043ca:	e033      	b.n	8004434 <__swsetup_r+0x98>
 80043cc:	0758      	lsls	r0, r3, #29
 80043ce:	d512      	bpl.n	80043f6 <__swsetup_r+0x5a>
 80043d0:	6b61      	ldr	r1, [r4, #52]	@ 0x34
 80043d2:	b141      	cbz	r1, 80043e6 <__swsetup_r+0x4a>
 80043d4:	f104 0344 	add.w	r3, r4, #68	@ 0x44
 80043d8:	4299      	cmp	r1, r3
 80043da:	d002      	beq.n	80043e2 <__swsetup_r+0x46>
 80043dc:	4628      	mov	r0, r5
 80043de:	f7ff f8af 	bl	8003540 <_free_r>
 80043e2:	2300      	movs	r3, #0
 80043e4:	6363      	str	r3, [r4, #52]	@ 0x34
 80043e6:	89a3      	ldrh	r3, [r4, #12]
 80043e8:	f023 0324 	bic.w	r3, r3, #36	@ 0x24
 80043ec:	81a3      	strh	r3, [r4, #12]
 80043ee:	2300      	movs	r3, #0
 80043f0:	6063      	str	r3, [r4, #4]
 80043f2:	6923      	ldr	r3, [r4, #16]
 80043f4:	6023      	str	r3, [r4, #0]
 80043f6:	89a3      	ldrh	r3, [r4, #12]
 80043f8:	f043 0308 	orr.w	r3, r3, #8
 80043fc:	81a3      	strh	r3, [r4, #12]
 80043fe:	6923      	ldr	r3, [r4, #16]
 8004400:	b94b      	cbnz	r3, 8004416 <__swsetup_r+0x7a>
 8004402:	89a3      	ldrh	r3, [r4, #12]
 8004404:	f403 7320 	and.w	r3, r3, #640	@ 0x280
 8004408:	f5b3 7f00 	cmp.w	r3, #512	@ 0x200
 800440c:	d003      	beq.n	8004416 <__swsetup_r+0x7a>
 800440e:	4621      	mov	r1, r4
 8004410:	4628      	mov	r0, r5
 8004412:	f000 f883 	bl	800451c <__smakebuf_r>
 8004416:	f9b4 300c 	ldrsh.w	r3, [r4, #12]
 800441a:	f013 0201 	ands.w	r2, r3, #1
 800441e:	d00a      	beq.n	8004436 <__swsetup_r+0x9a>
 8004420:	2200      	movs	r2, #0
 8004422:	60a2      	str	r2, [r4, #8]
 8004424:	6962      	ldr	r2, [r4, #20]
 8004426:	4252      	negs	r2, r2
 8004428:	61a2      	str	r2, [r4, #24]
 800442a:	6922      	ldr	r2, [r4, #16]
 800442c:	b942      	cbnz	r2, 8004440 <__swsetup_r+0xa4>
 800442e:	f013 0080 	ands.w	r0, r3, #128	@ 0x80
 8004432:	d1c5      	bne.n	80043c0 <__swsetup_r+0x24>
 8004434:	bd38      	pop	{r3, r4, r5, pc}
 8004436:	0799      	lsls	r1, r3, #30
 8004438:	bf58      	it	pl
 800443a:	6962      	ldrpl	r2, [r4, #20]
 800443c:	60a2      	str	r2, [r4, #8]
 800443e:	e7f4      	b.n	800442a <__swsetup_r+0x8e>
 8004440:	2000      	movs	r0, #0
 8004442:	e7f7      	b.n	8004434 <__swsetup_r+0x98>
 8004444:	2000000c 	.word	0x2000000c

08004448 <_raise_r>:
 8004448:	291f      	cmp	r1, #31
 800444a:	b538      	push	{r3, r4, r5, lr}
 800444c:	4605      	mov	r5, r0
 800444e:	460c      	mov	r4, r1
 8004450:	d904      	bls.n	800445c <_raise_r+0x14>
 8004452:	2316      	movs	r3, #22
 8004454:	6003      	str	r3, [r0, #0]
 8004456:	f04f 30ff 	mov.w	r0, #4294967295
 800445a:	bd38      	pop	{r3, r4, r5, pc}
 800445c:	6bc2      	ldr	r2, [r0, #60]	@ 0x3c
 800445e:	b112      	cbz	r2, 8004466 <_raise_r+0x1e>
 8004460:	f852 3021 	ldr.w	r3, [r2, r1, lsl #2]
 8004464:	b94b      	cbnz	r3, 800447a <_raise_r+0x32>
 8004466:	4628      	mov	r0, r5
 8004468:	f000 f830 	bl	80044cc <_getpid_r>
 800446c:	4622      	mov	r2, r4
 800446e:	4601      	mov	r1, r0
 8004470:	4628      	mov	r0, r5
 8004472:	e8bd 4038 	ldmia.w	sp!, {r3, r4, r5, lr}
 8004476:	f000 b817 	b.w	80044a8 <_kill_r>
 800447a:	2b01      	cmp	r3, #1
 800447c:	d00a      	beq.n	8004494 <_raise_r+0x4c>
 800447e:	1c59      	adds	r1, r3, #1
 8004480:	d103      	bne.n	800448a <_raise_r+0x42>
 8004482:	2316      	movs	r3, #22
 8004484:	6003      	str	r3, [r0, #0]
 8004486:	2001      	movs	r0, #1
 8004488:	e7e7      	b.n	800445a <_raise_r+0x12>
 800448a:	2100      	movs	r1, #0
 800448c:	f842 1024 	str.w	r1, [r2, r4, lsl #2]
 8004490:	4620      	mov	r0, r4
 8004492:	4798      	blx	r3
 8004494:	2000      	movs	r0, #0
 8004496:	e7e0      	b.n	800445a <_raise_r+0x12>

08004498 <raise>:
 8004498:	4b02      	ldr	r3, [pc, #8]	@ (80044a4 <raise+0xc>)
 800449a:	4601      	mov	r1, r0
 800449c:	6818      	ldr	r0, [r3, #0]
 800449e:	f7ff bfd3 	b.w	8004448 <_raise_r>
 80044a2:	bf00      	nop
 80044a4:	2000000c 	.word	0x2000000c

080044a8 <_kill_r>:
 80044a8:	b538      	push	{r3, r4, r5, lr}
 80044aa:	4d07      	ldr	r5, [pc, #28]	@ (80044c8 <_kill_r+0x20>)
 80044ac:	2300      	movs	r3, #0
 80044ae:	4604      	mov	r4, r0
 80044b0:	4608      	mov	r0, r1
 80044b2:	4611      	mov	r1, r2
 80044b4:	602b      	str	r3, [r5, #0]
 80044b6:	f7fd fa21 	bl	80018fc <_kill>
 80044ba:	1c43      	adds	r3, r0, #1
 80044bc:	d102      	bne.n	80044c4 <_kill_r+0x1c>
 80044be:	682b      	ldr	r3, [r5, #0]
 80044c0:	b103      	cbz	r3, 80044c4 <_kill_r+0x1c>
 80044c2:	6023      	str	r3, [r4, #0]
 80044c4:	bd38      	pop	{r3, r4, r5, pc}
 80044c6:	bf00      	nop
 80044c8:	20000348 	.word	0x20000348

080044cc <_getpid_r>:
 80044cc:	f7fd ba0e 	b.w	80018ec <_getpid>

080044d0 <__swhatbuf_r>:
 80044d0:	b570      	push	{r4, r5, r6, lr}
 80044d2:	460c      	mov	r4, r1
 80044d4:	f9b1 100e 	ldrsh.w	r1, [r1, #14]
 80044d8:	2900      	cmp	r1, #0
 80044da:	b096      	sub	sp, #88	@ 0x58
 80044dc:	4615      	mov	r5, r2
 80044de:	461e      	mov	r6, r3
 80044e0:	da0d      	bge.n	80044fe <__swhatbuf_r+0x2e>
 80044e2:	89a3      	ldrh	r3, [r4, #12]
 80044e4:	f013 0f80 	tst.w	r3, #128	@ 0x80
 80044e8:	f04f 0100 	mov.w	r1, #0
 80044ec:	bf14      	ite	ne
 80044ee:	2340      	movne	r3, #64	@ 0x40
 80044f0:	f44f 6380 	moveq.w	r3, #1024	@ 0x400
 80044f4:	2000      	movs	r0, #0
 80044f6:	6031      	str	r1, [r6, #0]
 80044f8:	602b      	str	r3, [r5, #0]
 80044fa:	b016      	add	sp, #88	@ 0x58
 80044fc:	bd70      	pop	{r4, r5, r6, pc}
 80044fe:	466a      	mov	r2, sp
 8004500:	f000 f848 	bl	8004594 <_fstat_r>
 8004504:	2800      	cmp	r0, #0
 8004506:	dbec      	blt.n	80044e2 <__swhatbuf_r+0x12>
 8004508:	9901      	ldr	r1, [sp, #4]
 800450a:	f401 4170 	and.w	r1, r1, #61440	@ 0xf000
 800450e:	f5a1 5300 	sub.w	r3, r1, #8192	@ 0x2000
 8004512:	4259      	negs	r1, r3
 8004514:	4159      	adcs	r1, r3
 8004516:	f44f 6380 	mov.w	r3, #1024	@ 0x400
 800451a:	e7eb      	b.n	80044f4 <__swhatbuf_r+0x24>

0800451c <__smakebuf_r>:
 800451c:	898b      	ldrh	r3, [r1, #12]
 800451e:	b5f7      	push	{r0, r1, r2, r4, r5, r6, r7, lr}
 8004520:	079d      	lsls	r5, r3, #30
 8004522:	4606      	mov	r6, r0
 8004524:	460c      	mov	r4, r1
 8004526:	d507      	bpl.n	8004538 <__smakebuf_r+0x1c>
 8004528:	f104 0347 	add.w	r3, r4, #71	@ 0x47
 800452c:	6023      	str	r3, [r4, #0]
 800452e:	6123      	str	r3, [r4, #16]
 8004530:	2301      	movs	r3, #1
 8004532:	6163      	str	r3, [r4, #20]
 8004534:	b003      	add	sp, #12
 8004536:	bdf0      	pop	{r4, r5, r6, r7, pc}
 8004538:	ab01      	add	r3, sp, #4
 800453a:	466a      	mov	r2, sp
 800453c:	f7ff ffc8 	bl	80044d0 <__swhatbuf_r>
 8004540:	9f00      	ldr	r7, [sp, #0]
 8004542:	4605      	mov	r5, r0
 8004544:	4639      	mov	r1, r7
 8004546:	4630      	mov	r0, r6
 8004548:	f7ff f86e 	bl	8003628 <_malloc_r>
 800454c:	b948      	cbnz	r0, 8004562 <__smakebuf_r+0x46>
 800454e:	f9b4 300c 	ldrsh.w	r3, [r4, #12]
 8004552:	059a      	lsls	r2, r3, #22
 8004554:	d4ee      	bmi.n	8004534 <__smakebuf_r+0x18>
 8004556:	f023 0303 	bic.w	r3, r3, #3
 800455a:	f043 0302 	orr.w	r3, r3, #2
 800455e:	81a3      	strh	r3, [r4, #12]
 8004560:	e7e2      	b.n	8004528 <__smakebuf_r+0xc>
 8004562:	89a3      	ldrh	r3, [r4, #12]
 8004564:	6020      	str	r0, [r4, #0]
 8004566:	f043 0380 	orr.w	r3, r3, #128	@ 0x80
 800456a:	81a3      	strh	r3, [r4, #12]
 800456c:	9b01      	ldr	r3, [sp, #4]
 800456e:	e9c4 0704 	strd	r0, r7, [r4, #16]
 8004572:	b15b      	cbz	r3, 800458c <__smakebuf_r+0x70>
 8004574:	f9b4 100e 	ldrsh.w	r1, [r4, #14]
 8004578:	4630      	mov	r0, r6
 800457a:	f000 f81d 	bl	80045b8 <_isatty_r>
 800457e:	b128      	cbz	r0, 800458c <__smakebuf_r+0x70>
 8004580:	89a3      	ldrh	r3, [r4, #12]
 8004582:	f023 0303 	bic.w	r3, r3, #3
 8004586:	f043 0301 	orr.w	r3, r3, #1
 800458a:	81a3      	strh	r3, [r4, #12]
 800458c:	89a3      	ldrh	r3, [r4, #12]
 800458e:	431d      	orrs	r5, r3
 8004590:	81a5      	strh	r5, [r4, #12]
 8004592:	e7cf      	b.n	8004534 <__smakebuf_r+0x18>

08004594 <_fstat_r>:
 8004594:	b538      	push	{r3, r4, r5, lr}
 8004596:	4d07      	ldr	r5, [pc, #28]	@ (80045b4 <_fstat_r+0x20>)
 8004598:	2300      	movs	r3, #0
 800459a:	4604      	mov	r4, r0
 800459c:	4608      	mov	r0, r1
 800459e:	4611      	mov	r1, r2
 80045a0:	602b      	str	r3, [r5, #0]
 80045a2:	f7fd fa0b 	bl	80019bc <_fstat>
 80045a6:	1c43      	adds	r3, r0, #1
 80045a8:	d102      	bne.n	80045b0 <_fstat_r+0x1c>
 80045aa:	682b      	ldr	r3, [r5, #0]
 80045ac:	b103      	cbz	r3, 80045b0 <_fstat_r+0x1c>
 80045ae:	6023      	str	r3, [r4, #0]
 80045b0:	bd38      	pop	{r3, r4, r5, pc}
 80045b2:	bf00      	nop
 80045b4:	20000348 	.word	0x20000348

080045b8 <_isatty_r>:
 80045b8:	b538      	push	{r3, r4, r5, lr}
 80045ba:	4d06      	ldr	r5, [pc, #24]	@ (80045d4 <_isatty_r+0x1c>)
 80045bc:	2300      	movs	r3, #0
 80045be:	4604      	mov	r4, r0
 80045c0:	4608      	mov	r0, r1
 80045c2:	602b      	str	r3, [r5, #0]
 80045c4:	f7fd fa0a 	bl	80019dc <_isatty>
 80045c8:	1c43      	adds	r3, r0, #1
 80045ca:	d102      	bne.n	80045d2 <_isatty_r+0x1a>
 80045cc:	682b      	ldr	r3, [r5, #0]
 80045ce:	b103      	cbz	r3, 80045d2 <_isatty_r+0x1a>
 80045d0:	6023      	str	r3, [r4, #0]
 80045d2:	bd38      	pop	{r3, r4, r5, pc}
 80045d4:	20000348 	.word	0x20000348

080045d8 <_init>:
 80045d8:	b5f8      	push	{r3, r4, r5, r6, r7, lr}
 80045da:	bf00      	nop
 80045dc:	bcf8      	pop	{r3, r4, r5, r6, r7}
 80045de:	bc08      	pop	{r3}
 80045e0:	469e      	mov	lr, r3
 80045e2:	4770      	bx	lr

080045e4 <_fini>:
 80045e4:	b5f8      	push	{r3, r4, r5, r6, r7, lr}
 80045e6:	bf00      	nop
 80045e8:	bcf8      	pop	{r3, r4, r5, r6, r7}
 80045ea:	bc08      	pop	{r3}
 80045ec:	469e      	mov	lr, r3
 80045ee:	4770      	bx	lr
